ccopy_reg
_reconstructor
p0
(cnetworkx.classes.graph
Graph
p1
c__builtin__
object
p2
Ntp3
Rp4
(dp5
S'node'
p6
(dp7
I0
(dp8
sI1
(dp9
sI2
(dp10
sI3
(dp11
sI4
(dp12
sI5
(dp13
sI6
(dp14
sI7
(dp15
sI8
(dp16
sI9
(dp17
sI10
(dp18
sI11
(dp19
sI12
(dp20
sI13
(dp21
sI14
(dp22
sI15
(dp23
sI16
(dp24
sI17
(dp25
sI18
(dp26
sI19
(dp27
sI20
(dp28
sI21
(dp29
sI22
(dp30
sI23
(dp31
sI24
(dp32
sI25
(dp33
sI26
(dp34
sI27
(dp35
sI28
(dp36
sI29
(dp37
sI30
(dp38
sI31
(dp39
sI32
(dp40
sI33
(dp41
sI34
(dp42
sI35
(dp43
sI36
(dp44
sI37
(dp45
sI38
(dp46
sI39
(dp47
sI40
(dp48
sI41
(dp49
sI42
(dp50
sI43
(dp51
sI44
(dp52
sI45
(dp53
sI46
(dp54
sI47
(dp55
sI48
(dp56
sI49
(dp57
sI50
(dp58
sI51
(dp59
sI52
(dp60
sI53
(dp61
sI54
(dp62
sI55
(dp63
sI56
(dp64
sI57
(dp65
sI58
(dp66
sI59
(dp67
sI60
(dp68
sI61
(dp69
sI62
(dp70
sI63
(dp71
sI64
(dp72
sI65
(dp73
sI66
(dp74
sI67
(dp75
sI68
(dp76
sI69
(dp77
sI70
(dp78
sI71
(dp79
sI72
(dp80
sI73
(dp81
sI74
(dp82
sI75
(dp83
sI76
(dp84
sI77
(dp85
sI78
(dp86
sI79
(dp87
sI80
(dp88
sI81
(dp89
sI82
(dp90
sI83
(dp91
sI84
(dp92
sI85
(dp93
sI86
(dp94
sI87
(dp95
sI88
(dp96
sI89
(dp97
sI90
(dp98
sI91
(dp99
sI92
(dp100
sI93
(dp101
sI94
(dp102
sI95
(dp103
sI96
(dp104
sI97
(dp105
sI98
(dp106
sI99
(dp107
sI100
(dp108
sI101
(dp109
sI102
(dp110
sI103
(dp111
sI104
(dp112
sI105
(dp113
sI106
(dp114
sI107
(dp115
sI108
(dp116
sI109
(dp117
sI110
(dp118
sI111
(dp119
sI112
(dp120
sI113
(dp121
sI114
(dp122
sI115
(dp123
sI116
(dp124
sI117
(dp125
sI118
(dp126
sI119
(dp127
sI120
(dp128
sI121
(dp129
sI122
(dp130
sI123
(dp131
sI124
(dp132
sI125
(dp133
sI126
(dp134
sI127
(dp135
sI128
(dp136
sI129
(dp137
sI130
(dp138
sI131
(dp139
sI132
(dp140
sI133
(dp141
sI134
(dp142
sI135
(dp143
sI136
(dp144
sI137
(dp145
sI138
(dp146
sI139
(dp147
sI140
(dp148
sI141
(dp149
sI142
(dp150
sI143
(dp151
sI144
(dp152
sI145
(dp153
sI146
(dp154
sI147
(dp155
sI148
(dp156
sI149
(dp157
sI150
(dp158
sI151
(dp159
sI152
(dp160
sI153
(dp161
sI154
(dp162
sI155
(dp163
sI156
(dp164
sI157
(dp165
sI158
(dp166
sI159
(dp167
sI160
(dp168
sI161
(dp169
sI162
(dp170
sI163
(dp171
sI164
(dp172
sI165
(dp173
sI166
(dp174
sI167
(dp175
sI168
(dp176
sI169
(dp177
sI170
(dp178
sI171
(dp179
sI172
(dp180
sI173
(dp181
sI174
(dp182
sI175
(dp183
sI176
(dp184
sI177
(dp185
sI178
(dp186
sI179
(dp187
sI180
(dp188
sI181
(dp189
sI182
(dp190
sI183
(dp191
sI184
(dp192
sI185
(dp193
sI186
(dp194
sI187
(dp195
sI188
(dp196
sI189
(dp197
sI190
(dp198
sI191
(dp199
sI192
(dp200
sI193
(dp201
sI194
(dp202
sI195
(dp203
sI196
(dp204
sI197
(dp205
sI198
(dp206
sI199
(dp207
ssS'node_dict_factory'
p208
c__builtin__
dict
p209
sS'edge_attr_dict_factory'
p210
g209
sS'edge'
p211
(dp212
I0
(dp213
I164
(dp214
sI100
(dp215
sI101
(dp216
sI102
(dp217
sI103
(dp218
sI106
(dp219
sI171
(dp220
sI175
(dp221
sI112
(dp222
sI114
(dp223
sI150
(dp224
sI152
(dp225
sI132
(dp226
sI122
(dp227
sI123
(dp228
sI134
(dp229
sI159
(dp230
ssI1
(dp231
I139
(dp232
sI100
(dp233
sI104
(dp234
sI137
(dp235
sI107
(dp236
sI108
(dp237
sI177
(dp238
sI115
(dp239
sI148
(dp240
sI181
(dp241
sI150
(dp242
sI180
(dp243
sI155
(dp244
sI189
(dp245
sI127
(dp246
ssI2
(dp247
I133
(dp248
sI129
(dp249
sI100
(dp250
sI101
(dp251
sI166
(dp252
sI103
(dp253
sI104
(dp254
sI192
(dp255
sI108
(dp256
sI109
(dp257
sI113
(dp258
sI114
(dp259
sI117
(dp260
sI119
(dp261
sI191
(dp262
sI124
(dp263
sI157
(dp264
sI158
(dp265
sI127
(dp266
ssI3
(dp267
I163
(dp268
sI100
(dp269
sI101
(dp270
sI106
(dp271
sI184
(dp272
sI188
(dp273
ssI4
(dp274
I128
(dp275
sI101
(dp276
sI102
(dp277
sI168
(dp278
sI105
(dp279
sI138
(dp280
sI110
(dp281
sI175
(dp282
sI146
(dp283
sI179
(dp284
sI118
(dp285
sI158
(dp286
ssI5
(dp287
I144
(dp288
sI130
(dp289
sI100
(dp290
sI133
(dp291
sI102
(dp292
sI135
(dp293
sI172
(dp294
sI140
(dp295
sI162
(dp296
sI142
(dp297
sI143
(dp298
sI112
(dp299
sI113
(dp300
sI179
(dp301
sI152
(dp302
sI154
(dp303
sI156
(dp304
sI157
(dp305
sI165
(dp306
ssI6
(dp307
I129
(dp308
sI131
(dp309
sI100
(dp310
sI101
(dp311
sI167
(dp312
sI107
(dp313
sI174
(dp314
sI109
(dp315
sI110
(dp316
sI111
(dp317
sI141
(dp318
sI173
(dp319
sI115
(dp320
sI116
(dp321
sI149
(dp322
sI118
(dp323
sI153
(dp324
sI121
(dp325
sI126
(dp326
ssI7
(dp327
I198
(dp328
sI103
(dp329
sI156
(dp330
sI106
(dp331
sI177
(dp332
sI146
(dp333
sI117
(dp334
sI182
(dp335
sI151
(dp336
sI120
(dp337
sI124
(dp338
ssI8
(dp339
I138
(dp340
sI101
(dp341
ssI9
(dp342
I145
(dp343
sI159
(dp344
sI100
(dp345
sI111
(dp346
ssI10
(dp347
I120
(dp348
sI131
(dp349
sI101
(dp350
sI102
(dp351
ssI11
(dp352
I161
(dp353
sI163
(dp354
sI102
(dp355
sI134
(dp356
sI108
(dp357
sI119
(dp358
sI187
(dp359
sI125
(dp360
ssI12
(dp361
I160
(dp362
sI100
(dp363
sI137
(dp364
sI139
(dp365
sI176
(dp366
sI178
(dp367
sI185
(dp368
ssI13
(dp369
I102
(dp370
ssI14
(dp371
I102
(dp372
sI136
(dp373
sI113
(dp374
sI116
(dp375
sI183
(dp376
sI122
(dp377
ssI15
(dp378
I162
(dp379
sI164
(dp380
sI102
(dp381
sI108
(dp382
sI140
(dp383
sI142
(dp384
sI153
(dp385
sI125
(dp386
sI126
(dp387
ssI16
(dp388
I121
(dp389
sI106
(dp390
sI196
(dp391
sI102
(dp392
ssI17
(dp393
I176
(dp394
sI188
(dp395
sI108
(dp396
sI101
(dp397
ssI18
(dp398
I107
(dp399
sI190
(dp400
sI110
(dp401
ssI19
(dp402
I197
(dp403
sI170
(dp404
sI113
(dp405
sI180
(dp406
sI118
(dp407
sI154
(dp408
ssI20
(dp409
I100
(dp410
ssI21
(dp411
I105
(dp412
sI186
(dp413
sI123
(dp414
sI132
(dp415
sI119
(dp416
ssI22
(dp417
I128
(dp418
sI100
(dp419
sI118
(dp420
ssI23
(dp421
I113
(dp422
sI102
(dp423
sI199
(dp424
ssI24
(dp425
I193
(dp426
sI194
(dp427
sI102
(dp428
sI136
(dp429
sI173
(dp430
sI148
(dp431
sI118
(dp432
sI151
(dp433
ssI25
(dp434
I101
(dp435
sI102
(dp436
ssI26
(dp437
I108
(dp438
sI100
(dp439
ssI27
(dp440
I117
(dp441
sI118
(dp442
ssI28
(dp443
I141
(dp444
sI125
(dp445
sI127
(dp446
ssI29
(dp447
I130
(dp448
sI135
(dp449
sI101
(dp450
sI174
(dp451
sI111
(dp452
ssI30
(dp453
I118
(dp454
ssI31
(dp455
I147
(dp456
sI101
(dp457
sI102
(dp458
ssI32
(dp459
I117
(dp460
sI127
(dp461
ssI33
(dp462
I196
(dp463
sI101
(dp464
sI127
(dp465
ssI34
(dp466
I129
(dp467
sI133
(dp468
sI182
(dp469
ssI35
(dp470
I101
(dp471
ssI36
(dp472
I100
(dp473
sI133
(dp474
ssI37
(dp475
I112
(dp476
sI101
(dp477
ssI38
(dp478
I178
(dp479
sI124
(dp480
sI109
(dp481
ssI39
(dp482
I143
(dp483
sI144
(dp484
sI147
(dp485
sI117
(dp486
sI184
(dp487
sI122
(dp488
ssI40
(dp489
I169
(dp490
sI131
(dp491
sI109
(dp492
ssI41
(dp493
I113
(dp494
sI126
(dp495
ssI42
(dp496
I194
(dp497
sI172
(dp498
sI117
(dp499
sI118
(dp500
sI183
(dp501
ssI43
(dp502
I101
(dp503
sI118
(dp504
ssI44
(dp505
I160
(dp506
sI145
(dp507
sI125
(dp508
sI102
(dp509
sI199
(dp510
ssI45
(dp511
I108
(dp512
sI102
(dp513
ssI46
(dp514
I113
(dp515
sI170
(dp516
sI195
(dp517
sI132
(dp518
sI193
(dp519
ssI47
(dp520
I122
(dp521
sI118
(dp522
ssI48
(dp523
I109
(dp524
sI117
(dp525
ssI49
(dp526
I100
(dp527
sI166
(dp528
sI118
(dp529
ssI50
(dp530
I192
(dp531
sI155
(dp532
sI101
(dp533
sI142
(dp534
sI191
(dp535
ssI51
(dp536
I114
(dp537
ssI52
(dp538
I116
(dp539
sI102
(dp540
ssI53
(dp541
I133
(dp542
sI127
(dp543
ssI54
(dp544
I148
(dp545
sI101
(dp546
ssI55
(dp547
I102
(dp548
sI127
(dp549
ssI56
(dp550
I130
(dp551
sI101
(dp552
ssI57
(dp553
I155
(dp554
sI102
(dp555
ssI58
(dp556
I171
(dp557
sI100
(dp558
sI110
(dp559
ssI59
(dp560
I122
(dp561
sI100
(dp562
ssI60
(dp563
I161
(dp564
sI119
(dp565
sI167
(dp566
sI111
(dp567
ssI61
(dp568
I144
(dp569
sI146
(dp570
ssI62
(dp571
I136
(dp572
sI147
(dp573
ssI63
(dp574
I128
(dp575
sI109
(dp576
ssI64
(dp577
I112
(dp578
sI130
(dp579
sI165
(dp580
ssI65
(dp581
I129
(dp582
sI189
(dp583
sI118
(dp584
ssI66
(dp585
I112
(dp586
sI141
(dp587
ssI67
(dp588
I148
(dp589
sI102
(dp590
ssI68
(dp591
I122
(dp592
sI102
(dp593
ssI69
(dp594
I155
(dp595
sI181
(dp596
sI102
(dp597
ssI70
(dp598
I144
(dp599
sI162
(dp600
ssI71
(dp601
I129
(dp602
sI102
(dp603
ssI72
(dp604
I101
(dp605
sI118
(dp606
ssI73
(dp607
I198
(dp608
sI118
(dp609
sI110
(dp610
ssI74
(dp611
I157
(dp612
sI102
(dp613
ssI75
(dp614
I108
(dp615
sI119
(dp616
ssI76
(dp617
I122
(dp618
sI147
(dp619
ssI77
(dp620
I109
(dp621
sI174
(dp622
ssI78
(dp623
I139
(dp624
sI102
(dp625
ssI79
(dp626
I127
(dp627
sI119
(dp628
ssI80
(dp629
I139
(dp630
sI163
(dp631
ssI81
(dp632
I122
(dp633
sI155
(dp634
sI190
(dp635
ssI82
(dp636
I122
(dp637
sI110
(dp638
ssI83
(dp639
I157
(dp640
sI167
(dp641
ssI84
(dp642
I130
(dp643
sI142
(dp644
ssI85
(dp645
I195
(dp646
sI125
(dp647
sI127
(dp648
ssI86
(dp649
I104
(dp650
sI150
(dp651
ssI87
(dp652
I128
(dp653
sI150
(dp654
ssI88
(dp655
I101
(dp656
sI118
(dp657
ssI89
(dp658
I106
(dp659
sI171
(dp660
ssI90
(dp661
I178
(dp662
sI171
(dp663
ssI91
(dp664
I171
(dp665
sI142
(dp666
ssI92
(dp667
I181
(dp668
sI127
(dp669
ssI93
(dp670
I128
(dp671
sI123
(dp672
ssI94
(dp673
I177
(dp674
sI133
(dp675
ssI95
(dp676
I117
(dp677
sI119
(dp678
ssI96
(dp679
I162
(dp680
sI102
(dp681
ssI97
(dp682
I129
(dp683
sI181
(dp684
sI197
(dp685
ssI98
(dp686
I129
(dp687
sI118
(dp688
ssI99
(dp689
I131
(dp690
sI171
(dp691
ssI100
(dp692
I0
g215
sI1
g233
sI2
g250
sI3
g269
sI36
g473
sI5
g290
sI6
g310
sI9
g345
sI12
g363
sI49
g527
sI20
g410
sI22
g419
sI26
g439
sI59
g562
sI58
g558
ssI101
(dp693
I0
g216
sI33
g464
sI2
g251
sI3
g270
sI4
g276
sI37
g477
sI6
g311
sI8
g341
sI10
g350
sI43
g503
sI17
g397
sI50
g533
sI35
g471
sI54
g546
sI88
g656
sI56
g552
sI25
g435
sI29
g450
sI72
g605
sI31
g457
ssI102
(dp694
I0
g217
sI4
g277
sI5
g292
sI10
g351
sI11
g355
sI13
g370
sI14
g372
sI15
g381
sI16
g392
sI23
g423
sI24
g428
sI25
g436
sI31
g458
sI44
g509
sI45
g513
sI52
g540
sI55
g548
sI57
g555
sI67
g590
sI68
g593
sI69
g597
sI71
g603
sI74
g613
sI78
g625
sI96
g681
ssI103
(dp695
I0
g218
sI2
g253
sI7
g329
ssI104
(dp696
I1
g234
sI2
g254
sI86
g650
ssI105
(dp697
I4
g279
sI21
g412
ssI106
(dp698
I0
g219
sI16
g390
sI3
g271
sI89
g659
sI7
g331
ssI107
(dp699
I1
g236
sI18
g399
sI6
g313
ssI108
(dp700
I1
g237
sI2
g256
sI75
g615
sI11
g357
sI45
g512
sI15
g382
sI17
g396
sI26
g438
ssI109
(dp701
I2
g257
sI6
g315
sI38
g481
sI40
g492
sI77
g621
sI48
g524
sI63
g576
ssI110
(dp702
I4
g281
sI6
g316
sI73
g610
sI82
g638
sI18
g401
sI58
g559
ssI111
(dp703
I9
g346
sI60
g567
sI29
g452
sI6
g317
ssI112
(dp704
I0
g222
sI64
g578
sI66
g586
sI5
g299
sI37
g476
ssI113
(dp705
I2
g258
sI5
g300
sI41
g494
sI14
g374
sI19
g405
sI46
g515
sI23
g422
ssI114
(dp706
I0
g223
sI2
g259
sI51
g537
ssI115
(dp707
I1
g239
sI6
g320
ssI116
(dp708
I52
g539
sI14
g375
sI6
g321
ssI117
(dp709
I32
g460
sI2
g260
sI39
g486
sI42
g499
sI7
g334
sI48
g525
sI27
g441
sI95
g677
ssI118
(dp710
I65
g584
sI98
g688
sI4
g285
sI6
g323
sI72
g606
sI73
g609
sI42
g500
sI43
g504
sI47
g522
sI49
g529
sI19
g407
sI22
g420
sI24
g432
sI88
g657
sI27
g442
sI30
g454
ssI119
(dp711
I2
g261
sI11
g358
sI75
g616
sI79
g628
sI21
g416
sI60
g565
sI95
g678
ssI120
(dp712
I10
g348
sI7
g337
ssI121
(dp713
I16
g389
sI6
g325
ssI122
(dp714
I0
g227
sI68
g592
sI39
g488
sI76
g618
sI14
g377
sI47
g521
sI81
g633
sI82
g637
sI59
g561
ssI123
(dp715
I0
g228
sI21
g414
sI93
g672
ssI124
(dp716
I2
g263
sI38
g480
sI7
g338
ssI125
(dp717
I44
g508
sI11
g360
sI28
g445
sI85
g647
sI15
g386
ssI126
(dp718
I41
g495
sI6
g326
sI15
g387
ssI127
(dp719
I32
g461
sI1
g246
sI2
g266
sI33
g465
sI92
g669
sI79
g627
sI53
g543
sI55
g549
sI28
g446
sI85
g648
ssI128
(dp720
I87
g653
sI4
g275
sI93
g671
sI22
g418
sI63
g575
ssI129
(dp721
I65
g582
sI2
g249
sI98
g687
sI6
g308
sI97
g683
sI71
g602
sI34
g467
ssI130
(dp722
I56
g551
sI64
g579
sI84
g643
sI5
g289
sI29
g448
ssI131
(dp723
I40
g491
sI10
g349
sI99
g690
sI6
g309
ssI132
(dp724
I0
g226
sI21
g415
sI46
g518
ssI133
(dp725
I2
g248
sI36
g474
sI5
g291
sI34
g468
sI53
g542
sI94
g675
ssI134
(dp726
I0
g229
sI11
g356
ssI135
(dp727
I5
g293
sI29
g449
ssI136
(dp728
I24
g429
sI62
g572
sI14
g373
ssI137
(dp729
I1
g235
sI12
g364
ssI138
(dp730
I8
g340
sI4
g280
ssI139
(dp731
I80
g630
sI1
g232
sI12
g365
sI78
g624
ssI140
(dp732
I5
g295
sI15
g383
ssI141
(dp733
I66
g587
sI28
g444
sI6
g318
ssI142
(dp734
I50
g534
sI91
g666
sI84
g644
sI5
g297
sI15
g384
ssI143
(dp735
I5
g298
sI39
g483
ssI144
(dp736
I61
g569
sI5
g288
sI70
g599
sI39
g484
ssI145
(dp737
I9
g343
sI44
g507
ssI146
(dp738
I4
g283
sI61
g570
sI7
g333
ssI147
(dp739
I39
g485
sI76
g619
sI62
g573
sI31
g456
ssI148
(dp740
I24
g431
sI1
g240
sI67
g589
sI54
g545
ssI149
(dp741
I6
g322
ssI150
(dp742
I0
g224
sI1
g242
sI86
g651
sI87
g654
ssI151
(dp743
I24
g433
sI7
g336
ssI152
(dp744
I0
g225
sI5
g302
ssI153
(dp745
I6
g324
sI15
g385
ssI154
(dp746
I19
g408
sI5
g303
ssI155
(dp747
I1
g244
sI50
g532
sI69
g595
sI81
g634
sI57
g554
ssI156
(dp748
I5
g304
sI7
g330
ssI157
(dp749
I2
g264
sI83
g640
sI74
g612
sI5
g305
ssI158
(dp750
I2
g265
sI4
g286
ssI159
(dp751
I0
g230
sI9
g344
ssI160
(dp752
I44
g506
sI12
g362
ssI161
(dp753
I11
g353
sI60
g564
ssI162
(dp754
I96
g680
sI5
g296
sI70
g600
sI15
g379
ssI163
(dp755
I11
g354
sI80
g631
sI3
g268
ssI164
(dp756
I0
g214
sI15
g380
ssI165
(dp757
I64
g580
sI5
g306
ssI166
(dp758
I49
g528
sI2
g252
ssI167
(dp759
I83
g641
sI60
g566
sI6
g312
ssI168
(dp760
I4
g278
ssI169
(dp761
I40
g490
ssI170
(dp762
I19
g404
sI46
g516
ssI171
(dp763
I0
g220
sI99
g691
sI89
g660
sI58
g557
sI91
g665
sI90
g663
ssI172
(dp764
I42
g498
sI5
g294
ssI173
(dp765
I24
g430
sI6
g319
ssI174
(dp766
I29
g451
sI6
g314
sI77
g622
ssI175
(dp767
I0
g221
sI4
g282
ssI176
(dp768
I17
g394
sI12
g366
ssI177
(dp769
I1
g238
sI94
g674
sI7
g332
ssI178
(dp770
I90
g662
sI12
g367
sI38
g479
ssI179
(dp771
I4
g284
sI5
g301
ssI180
(dp772
I1
g243
sI19
g406
ssI181
(dp773
I1
g241
sI92
g668
sI69
g596
sI97
g684
ssI182
(dp774
I34
g469
sI7
g335
ssI183
(dp775
I42
g501
sI14
g376
ssI184
(dp776
I3
g272
sI39
g487
ssI185
(dp777
I12
g368
ssI186
(dp778
I21
g413
ssI187
(dp779
I11
g359
ssI188
(dp780
I17
g395
sI3
g273
ssI189
(dp781
I1
g245
sI65
g583
ssI190
(dp782
I81
g635
sI18
g400
ssI191
(dp783
I2
g262
sI50
g535
ssI192
(dp784
I2
g255
sI50
g531
ssI193
(dp785
I24
g426
sI46
g519
ssI194
(dp786
I24
g427
sI42
g497
ssI195
(dp787
I85
g646
sI46
g517
ssI196
(dp788
I16
g391
sI33
g463
ssI197
(dp789
I97
g685
sI19
g403
ssI198
(dp790
I73
g608
sI7
g328
ssI199
(dp791
I44
g510
sI23
g424
sssS'graph'
p792
(dp793
sS'adjlist_dict_factory'
p794
g209
sS'adj'
p795
g212
sb.