ccopy_reg
_reconstructor
p0
(cnetworkx.classes.graph
Graph
p1
c__builtin__
object
p2
Ntp3
Rp4
(dp5
S'node'
p6
(dp7
I0
(dp8
sI1
(dp9
sI2
(dp10
sI3
(dp11
sI4
(dp12
sI5
(dp13
sI6
(dp14
sI7
(dp15
sI8
(dp16
sI9
(dp17
sI10
(dp18
sI11
(dp19
sI12
(dp20
sI13
(dp21
sI14
(dp22
sI15
(dp23
sI16
(dp24
sI17
(dp25
sI18
(dp26
sI19
(dp27
sI20
(dp28
sI21
(dp29
sI22
(dp30
sI23
(dp31
sI24
(dp32
sI25
(dp33
sI26
(dp34
sI27
(dp35
sI28
(dp36
sI29
(dp37
sI30
(dp38
sI31
(dp39
sI32
(dp40
sI33
(dp41
sI34
(dp42
sI35
(dp43
sI36
(dp44
sI37
(dp45
sI38
(dp46
sI39
(dp47
sI40
(dp48
sI41
(dp49
sI42
(dp50
sI43
(dp51
sI44
(dp52
sI45
(dp53
sI46
(dp54
sI47
(dp55
sI48
(dp56
sI49
(dp57
sI50
(dp58
sI51
(dp59
sI52
(dp60
sI53
(dp61
sI54
(dp62
sI55
(dp63
sI56
(dp64
sI57
(dp65
sI58
(dp66
sI59
(dp67
sI60
(dp68
sI61
(dp69
sI62
(dp70
sI63
(dp71
sI64
(dp72
sI65
(dp73
sI66
(dp74
sI67
(dp75
sI68
(dp76
sI69
(dp77
sI70
(dp78
sI71
(dp79
sI72
(dp80
sI73
(dp81
sI74
(dp82
sI75
(dp83
sI76
(dp84
sI77
(dp85
sI78
(dp86
sI79
(dp87
sI80
(dp88
sI81
(dp89
sI82
(dp90
sI83
(dp91
sI84
(dp92
sI85
(dp93
sI86
(dp94
sI87
(dp95
sI88
(dp96
sI89
(dp97
sI90
(dp98
sI91
(dp99
sI92
(dp100
sI93
(dp101
sI94
(dp102
sI95
(dp103
sI96
(dp104
sI97
(dp105
sI98
(dp106
sI99
(dp107
sI100
(dp108
sI101
(dp109
sI102
(dp110
sI103
(dp111
sI104
(dp112
sI105
(dp113
sI106
(dp114
sI107
(dp115
sI108
(dp116
sI109
(dp117
sI110
(dp118
sI111
(dp119
sI112
(dp120
sI113
(dp121
sI114
(dp122
sI115
(dp123
sI116
(dp124
sI117
(dp125
sI118
(dp126
sI119
(dp127
sI120
(dp128
sI121
(dp129
sI122
(dp130
sI123
(dp131
sI124
(dp132
sI125
(dp133
sI126
(dp134
sI127
(dp135
sI128
(dp136
sI129
(dp137
sI130
(dp138
sI131
(dp139
sI132
(dp140
sI133
(dp141
sI134
(dp142
sI135
(dp143
sI136
(dp144
sI137
(dp145
sI138
(dp146
sI139
(dp147
sI140
(dp148
sI141
(dp149
sI142
(dp150
sI143
(dp151
sI144
(dp152
sI145
(dp153
sI146
(dp154
sI147
(dp155
sI148
(dp156
sI149
(dp157
sI150
(dp158
sI151
(dp159
sI152
(dp160
sI153
(dp161
sI154
(dp162
sI155
(dp163
sI156
(dp164
sI157
(dp165
sI158
(dp166
sI159
(dp167
sI160
(dp168
sI161
(dp169
sI162
(dp170
sI163
(dp171
sI164
(dp172
sI165
(dp173
sI166
(dp174
sI167
(dp175
sI168
(dp176
sI169
(dp177
sI170
(dp178
sI171
(dp179
sI172
(dp180
sI173
(dp181
sI174
(dp182
sI175
(dp183
sI176
(dp184
sI177
(dp185
sI178
(dp186
sI179
(dp187
sI180
(dp188
sI181
(dp189
sI182
(dp190
sI183
(dp191
sI184
(dp192
sI185
(dp193
sI186
(dp194
sI187
(dp195
sI188
(dp196
sI189
(dp197
sI190
(dp198
sI191
(dp199
sI192
(dp200
sI193
(dp201
sI194
(dp202
sI195
(dp203
sI196
(dp204
sI197
(dp205
sI198
(dp206
sI199
(dp207
ssS'node_dict_factory'
p208
c__builtin__
dict
p209
sS'edge_attr_dict_factory'
p210
g209
sS'edge'
p211
(dp212
I0
(dp213
I164
(dp214
sI100
(dp215
sI101
(dp216
sI102
(dp217
sI137
(dp218
sI107
(dp219
sI142
(dp220
sI111
(dp221
sI145
(dp222
sI178
(dp223
sI115
(dp224
sI117
(dp225
sI120
(dp226
sI121
(dp227
sI122
(dp228
sI123
(dp229
sI126
(dp230
ssI1
(dp231
I100
(dp232
sI102
(dp233
sI103
(dp234
sI104
(dp235
sI106
(dp236
sI108
(dp237
sI142
(dp238
sI181
(dp239
sI121
(dp240
sI124
(dp241
ssI2
(dp242
I192
(dp243
sI144
(dp244
sI100
(dp245
sI101
(dp246
sI103
(dp247
sI136
(dp248
sI105
(dp249
sI106
(dp250
sI139
(dp251
sI161
(dp252
sI111
(dp253
sI112
(dp254
sI188
(dp255
sI150
(dp256
sI185
(dp257
sI156
(dp258
ssI3
(dp259
I100
(dp260
sI110
(dp261
sI102
(dp262
ssI4
(dp263
I194
(dp264
sI163
(dp265
sI100
(dp266
sI101
(dp267
sI134
(dp268
sI135
(dp269
sI104
(dp270
sI105
(dp271
sI138
(dp272
sI107
(dp273
sI113
(dp274
sI114
(dp275
sI180
(dp276
sI150
(dp277
sI119
(dp278
sI137
(dp279
sI196
(dp280
sI154
(dp281
sI156
(dp282
sI199
(dp283
sI159
(dp284
ssI5
(dp285
I114
(dp286
sI122
(dp287
sI101
(dp288
sI102
(dp289
sI189
(dp290
ssI6
(dp291
I155
(dp292
sI102
(dp293
sI104
(dp294
sI169
(dp295
sI108
(dp296
sI187
(dp297
sI183
(dp298
sI186
(dp299
sI123
(dp300
sI127
(dp301
ssI7
(dp302
I130
(dp303
sI195
(dp304
sI101
(dp305
sI103
(dp306
sI170
(dp307
sI135
(dp308
sI109
(dp309
sI110
(dp310
sI112
(dp311
sI113
(dp312
sI180
(dp313
sI125
(dp314
ssI8
(dp315
I182
(dp316
sI102
(dp317
sI105
(dp318
sI140
(dp319
sI141
(dp320
sI174
(dp321
sI116
(dp322
sI118
(dp323
sI152
(dp324
sI153
(dp325
ssI9
(dp326
I100
(dp327
sI101
(dp328
sI109
(dp329
sI143
(dp330
sI120
(dp331
sI157
(dp332
sI127
(dp333
ssI10
(dp334
I160
(dp335
sI129
(dp336
sI133
(dp337
sI102
(dp338
sI106
(dp339
sI141
(dp340
sI143
(dp341
sI115
(dp342
sI153
(dp343
sI155
(dp344
ssI11
(dp345
I102
(dp346
ssI12
(dp347
I160
(dp348
sI129
(dp349
sI118
(dp350
sI106
(dp351
sI172
(dp352
sI111
(dp353
sI179
(dp354
sI181
(dp355
sI138
(dp356
sI157
(dp357
ssI13
(dp358
I105
(dp359
sI132
(dp360
sI131
(dp361
sI100
(dp362
ssI14
(dp363
I131
(dp364
sI102
(dp365
sI167
(dp366
sI105
(dp367
sI176
(dp368
sI179
(dp369
sI119
(dp370
ssI15
(dp371
I105
(dp372
sI130
(dp373
sI146
(dp374
sI102
(dp375
ssI16
(dp376
I106
(dp377
sI115
(dp378
sI147
(dp379
sI133
(dp380
ssI17
(dp381
I193
(dp382
sI196
(dp383
sI105
(dp384
sI106
(dp385
sI175
(dp386
sI117
(dp387
sI154
(dp388
sI189
(dp389
ssI18
(dp390
I110
(dp391
sI102
(dp392
ssI19
(dp393
I102
(dp394
sI111
(dp395
ssI20
(dp396
I101
(dp397
sI103
(dp398
ssI21
(dp399
I106
(dp400
sI102
(dp401
ssI22
(dp402
I192
(dp403
sI134
(dp404
sI171
(dp405
sI111
(dp406
sI146
(dp407
sI119
(dp408
sI126
(dp409
ssI23
(dp410
I162
(dp411
sI132
(dp412
sI102
(dp413
sI139
(dp414
sI140
(dp415
sI182
(dp416
sI122
(dp417
ssI24
(dp418
I128
(dp419
sI105
(dp420
sI170
(dp421
sI110
(dp422
sI144
(dp423
sI124
(dp424
sI125
(dp425
sI191
(dp426
ssI25
(dp427
I114
(dp428
sI103
(dp429
ssI26
(dp430
I113
(dp431
sI108
(dp432
sI198
(dp433
ssI27
(dp434
I115
(dp435
sI101
(dp436
sI190
(dp437
ssI28
(dp438
I128
(dp439
sI149
(dp440
sI102
(dp441
sI111
(dp442
ssI29
(dp443
I108
(dp444
sI102
(dp445
ssI30
(dp446
I106
(dp447
sI197
(dp448
sI102
(dp449
ssI31
(dp450
I145
(dp451
sI106
(dp452
sI100
(dp453
ssI32
(dp454
I105
(dp455
sI107
(dp456
ssI33
(dp457
I129
(dp458
sI148
(dp459
sI102
(dp460
sI175
(dp461
ssI34
(dp462
I164
(dp463
sI102
(dp464
sI111
(dp465
ssI35
(dp466
I100
(dp467
sI197
(dp468
sI136
(dp469
sI176
(dp470
sI168
(dp471
sI147
(dp472
sI152
(dp473
sI121
(dp474
ssI36
(dp475
I165
(dp476
sI103
(dp477
sI169
(dp478
sI174
(dp479
sI113
(dp480
sI190
(dp481
ssI37
(dp482
I133
(dp483
sI102
(dp484
ssI38
(dp485
I106
(dp486
sI102
(dp487
sI151
(dp488
ssI39
(dp489
I115
(dp490
sI125
(dp491
sI149
(dp492
ssI40
(dp493
I123
(dp494
sI100
(dp495
ssI41
(dp496
I123
(dp497
sI183
(dp498
sI158
(dp499
sI127
(dp500
ssI42
(dp501
I103
(dp502
ssI43
(dp503
I120
(dp504
sI106
(dp505
ssI44
(dp506
I186
(dp507
sI148
(dp508
sI166
(dp509
sI102
(dp510
sI103
(dp511
ssI45
(dp512
I140
(dp513
sI124
(dp514
ssI46
(dp515
I104
(dp516
sI184
(dp517
sI102
(dp518
sI159
(dp519
ssI47
(dp520
I122
(dp521
sI172
(dp522
sI102
(dp523
ssI48
(dp524
I102
(dp525
sI167
(dp526
ssI49
(dp527
I112
(dp528
sI138
(dp529
sI158
(dp530
sI151
(dp531
ssI50
(dp532
I138
(dp533
sI126
(dp534
ssI51
(dp535
I122
(dp536
sI173
(dp537
sI102
(dp538
ssI52
(dp539
I133
(dp540
sI102
(dp541
ssI53
(dp542
I106
(dp543
sI125
(dp544
ssI54
(dp545
I107
(dp546
sI102
(dp547
ssI55
(dp548
I129
(dp549
sI130
(dp550
sI162
(dp551
ssI56
(dp552
I161
(dp553
sI171
(dp554
sI108
(dp555
sI102
(dp556
ssI57
(dp557
I168
(dp558
sI105
(dp559
sI139
(dp560
sI166
(dp561
sI177
(dp562
ssI58
(dp563
I106
(dp564
sI102
(dp565
ssI59
(dp566
I122
(dp567
sI102
(dp568
ssI60
(dp569
I104
(dp570
sI122
(dp571
ssI61
(dp572
I106
(dp573
sI163
(dp574
sI173
(dp575
sI198
(dp576
sI143
(dp577
ssI62
(dp578
I144
(dp579
sI125
(dp580
ssI63
(dp581
I178
(dp582
sI139
(dp583
sI100
(dp584
ssI64
(dp585
I134
(dp586
sI102
(dp587
sI191
(dp588
ssI65
(dp589
I121
(dp590
sI149
(dp591
sI165
(dp592
ssI66
(dp593
I110
(dp594
sI143
(dp595
ssI67
(dp596
I187
(dp597
sI107
(dp598
sI165
(dp599
ssI68
(dp600
I114
(dp601
sI117
(dp602
ssI69
(dp603
I148
(dp604
sI108
(dp605
ssI70
(dp606
I106
(dp607
sI102
(dp608
ssI71
(dp609
I195
(dp610
sI101
(dp611
sI102
(dp612
ssI72
(dp613
I121
(dp614
sI122
(dp615
ssI73
(dp616
I153
(dp617
sI143
(dp618
ssI74
(dp619
I146
(dp620
sI149
(dp621
ssI75
(dp622
I184
(dp623
sI106
(dp624
sI126
(dp625
ssI76
(dp626
I126
(dp627
sI111
(dp628
ssI77
(dp629
I107
(dp630
sI188
(dp631
sI102
(dp632
ssI78
(dp633
I113
(dp634
sI125
(dp635
ssI79
(dp636
I160
(dp637
sI133
(dp638
ssI80
(dp639
I138
(dp640
sI155
(dp641
ssI81
(dp642
I104
(dp643
sI100
(dp644
ssI82
(dp645
I125
(dp646
sI165
(dp647
ssI83
(dp648
I121
(dp649
sI127
(dp650
ssI84
(dp651
I139
(dp652
sI163
(dp653
ssI85
(dp654
I145
(dp655
sI149
(dp656
ssI86
(dp657
I154
(dp658
sI101
(dp659
ssI87
(dp660
I132
(dp661
sI117
(dp662
ssI88
(dp663
I106
(dp664
sI102
(dp665
ssI89
(dp666
I102
(dp667
ssI90
(dp668
I105
(dp669
sI126
(dp670
sI193
(dp671
ssI91
(dp672
I187
(dp673
sI127
(dp674
ssI92
(dp675
I140
(dp676
sI103
(dp677
ssI93
(dp678
I165
(dp679
sI102
(dp680
sI199
(dp681
ssI94
(dp682
I106
(dp683
sI163
(dp684
ssI95
(dp685
I122
(dp686
sI124
(dp687
ssI96
(dp688
I106
(dp689
sI140
(dp690
ssI97
(dp691
I181
(dp692
sI143
(dp693
ssI98
(dp694
I106
(dp695
sI102
(dp696
ssI99
(dp697
I137
(dp698
sI110
(dp699
ssI100
(dp700
I0
g215
sI1
g232
sI2
g245
sI3
g260
sI4
g266
sI40
g495
sI9
g327
sI13
g362
sI81
g644
sI35
g467
sI63
g584
sI31
g453
ssI101
(dp701
I0
g216
sI2
g246
sI4
g267
sI5
g288
sI7
g305
sI9
g328
sI71
g611
sI20
g397
sI86
g659
sI27
g436
ssI102
(dp702
I0
g217
sI1
g233
sI3
g262
sI5
g289
sI6
g293
sI8
g317
sI10
g338
sI11
g346
sI14
g365
sI15
g375
sI18
g392
sI19
g394
sI21
g401
sI23
g413
sI28
g441
sI29
g445
sI30
g449
sI33
g460
sI34
g464
sI37
g484
sI38
g487
sI44
g510
sI46
g518
sI47
g523
sI48
g525
sI51
g538
sI52
g541
sI54
g547
sI56
g556
sI58
g565
sI59
g568
sI64
g587
sI70
g608
sI71
g612
sI77
g632
sI88
g665
sI89
g667
sI93
g680
sI98
g696
ssI103
(dp703
I1
g234
sI2
g247
sI36
g477
sI7
g306
sI42
g502
sI44
g511
sI20
g398
sI25
g429
sI92
g677
ssI104
(dp704
I1
g235
sI4
g270
sI6
g294
sI46
g516
sI81
g643
sI60
g570
ssI105
(dp705
I32
g455
sI2
g249
sI4
g271
sI8
g318
sI13
g359
sI14
g367
sI15
g372
sI17
g384
sI24
g420
sI57
g559
sI90
g669
ssI106
(dp706
I96
g689
sI1
g236
sI2
g250
sI75
g624
sI70
g607
sI38
g486
sI10
g339
sI43
g505
sI12
g351
sI98
g695
sI61
g573
sI16
g377
sI17
g385
sI94
g683
sI21
g400
sI88
g664
sI58
g564
sI53
g543
sI30
g447
sI31
g452
ssI107
(dp707
I0
g219
sI32
g456
sI67
g598
sI4
g273
sI77
g630
sI54
g546
ssI108
(dp708
I1
g237
sI69
g605
sI6
g296
sI56
g555
sI26
g432
sI29
g444
ssI109
(dp709
I9
g329
sI7
g309
ssI110
(dp710
I66
g594
sI99
g699
sI7
g310
sI18
g391
sI3
g261
sI24
g422
ssI111
(dp711
I0
g221
sI2
g253
sI76
g628
sI12
g353
sI34
g465
sI19
g395
sI22
g406
sI28
g442
ssI112
(dp712
I49
g528
sI2
g254
sI7
g311
ssI113
(dp713
I36
g480
sI26
g431
sI4
g274
sI78
g634
sI7
g312
ssI114
(dp714
I68
g601
sI25
g428
sI4
g275
sI5
g286
ssI115
(dp715
I0
g224
sI16
g378
sI10
g342
sI27
g435
sI39
g490
ssI116
(dp716
I8
g322
ssI117
(dp717
I0
g225
sI17
g387
sI68
g602
sI87
g662
ssI118
(dp718
I8
g323
sI12
g350
ssI119
(dp719
I4
g278
sI22
g408
sI14
g370
ssI120
(dp720
I0
g226
sI9
g331
sI43
g504
ssI121
(dp721
I0
g227
sI1
g240
sI35
g474
sI65
g590
sI72
g614
sI83
g649
ssI122
(dp722
I0
g228
sI5
g287
sI72
g615
sI47
g521
sI51
g536
sI23
g417
sI59
g567
sI60
g571
sI95
g686
ssI123
(dp723
I0
g229
sI40
g494
sI6
g300
sI41
g497
ssI124
(dp724
I24
g424
sI1
g241
sI45
g514
sI95
g687
ssI125
(dp725
I39
g491
sI7
g314
sI78
g635
sI82
g646
sI53
g544
sI24
g425
sI62
g580
ssI126
(dp726
I0
g230
sI75
g625
sI76
g627
sI50
g534
sI22
g409
sI90
g670
ssI127
(dp727
I9
g333
sI91
g674
sI83
g650
sI6
g301
sI41
g500
ssI128
(dp728
I24
g419
sI28
g439
ssI129
(dp729
I33
g458
sI10
g336
sI12
g349
sI55
g549
ssI130
(dp730
I55
g550
sI15
g373
sI7
g303
ssI131
(dp731
I13
g361
sI14
g364
ssI132
(dp732
I87
g661
sI13
g360
sI23
g412
ssI133
(dp733
I16
g380
sI10
g337
sI52
g540
sI37
g483
sI79
g638
ssI134
(dp734
I64
g586
sI4
g268
sI22
g404
ssI135
(dp735
I4
g269
sI7
g308
ssI136
(dp736
I2
g248
sI35
g469
ssI137
(dp737
I0
g218
sI99
g698
sI4
g279
ssI138
(dp738
I80
g640
sI12
g356
sI50
g533
sI4
g272
sI49
g529
ssI139
(dp739
I57
g560
sI2
g251
sI63
g583
sI84
g652
sI23
g414
ssI140
(dp740
I8
g319
sI96
g690
sI92
g676
sI45
g513
sI23
g415
ssI141
(dp741
I8
g320
sI10
g340
ssI142
(dp742
I0
g220
sI1
g238
ssI143
(dp743
I97
g693
sI66
g595
sI9
g330
sI10
g341
sI73
g618
sI61
g577
ssI144
(dp744
I24
g423
sI2
g244
sI62
g579
ssI145
(dp745
I0
g222
sI85
g655
sI31
g451
ssI146
(dp746
I74
g620
sI22
g407
sI15
g374
ssI147
(dp747
I16
g379
sI35
g472
ssI148
(dp748
I33
g459
sI44
g508
sI69
g604
ssI149
(dp749
I65
g591
sI74
g621
sI28
g440
sI85
g656
sI39
g492
ssI150
(dp750
I2
g256
sI4
g277
ssI151
(dp751
I49
g531
sI38
g488
ssI152
(dp752
I8
g324
sI35
g473
ssI153
(dp753
I8
g325
sI73
g617
sI10
g343
ssI154
(dp754
I17
g388
sI4
g281
sI86
g658
ssI155
(dp755
I80
g641
sI10
g344
sI6
g292
ssI156
(dp756
I2
g258
sI4
g282
ssI157
(dp757
I9
g332
sI12
g357
ssI158
(dp758
I41
g499
sI49
g530
ssI159
(dp759
I4
g284
sI46
g519
ssI160
(dp760
I10
g335
sI12
g348
sI79
g637
ssI161
(dp761
I56
g553
sI2
g252
ssI162
(dp762
I55
g551
sI23
g411
ssI163
(dp763
I84
g653
sI4
g265
sI61
g574
sI94
g684
ssI164
(dp764
I0
g214
sI34
g463
ssI165
(dp765
I65
g592
sI82
g647
sI67
g599
sI36
g476
sI93
g679
ssI166
(dp766
I57
g561
sI44
g509
ssI167
(dp767
I48
g526
sI14
g366
ssI168
(dp768
I57
g558
sI35
g471
ssI169
(dp769
I36
g478
sI6
g295
ssI170
(dp770
I24
g421
sI7
g307
ssI171
(dp771
I56
g554
sI22
g405
ssI172
(dp772
I12
g352
sI47
g522
ssI173
(dp773
I51
g537
sI61
g575
ssI174
(dp774
I8
g321
sI36
g479
ssI175
(dp775
I17
g386
sI33
g461
ssI176
(dp776
I35
g470
sI14
g368
ssI177
(dp777
I57
g562
ssI178
(dp778
I0
g223
sI63
g582
ssI179
(dp779
I12
g354
sI14
g369
ssI180
(dp780
I4
g276
sI7
g313
ssI181
(dp781
I1
g239
sI12
g355
sI97
g692
ssI182
(dp782
I8
g316
sI23
g416
ssI183
(dp783
I41
g498
sI6
g298
ssI184
(dp784
I75
g623
sI46
g517
ssI185
(dp785
I2
g257
ssI186
(dp786
I44
g507
sI6
g299
ssI187
(dp787
I91
g673
sI67
g597
sI6
g297
ssI188
(dp788
I2
g255
sI77
g631
ssI189
(dp789
I17
g389
sI5
g290
ssI190
(dp790
I27
g437
sI36
g481
ssI191
(dp791
I24
g426
sI64
g588
ssI192
(dp792
I2
g243
sI22
g403
ssI193
(dp793
I17
g382
sI90
g671
ssI194
(dp794
I4
g264
ssI195
(dp795
I71
g610
sI7
g304
ssI196
(dp796
I17
g383
sI4
g280
ssI197
(dp797
I35
g468
sI30
g448
ssI198
(dp798
I26
g433
sI61
g576
ssI199
(dp799
I4
g283
sI93
g681
sssS'graph'
p800
(dp801
sS'adjlist_dict_factory'
p802
g209
sS'adj'
p803
g212
sb.