ccopy_reg
_reconstructor
p0
(cnetworkx.classes.graph
Graph
p1
c__builtin__
object
p2
Ntp3
Rp4
(dp5
S'node'
p6
(dp7
I0
(dp8
sI1
(dp9
sI2
(dp10
sI3
(dp11
sI4
(dp12
sI5
(dp13
sI6
(dp14
sI7
(dp15
sI8
(dp16
sI9
(dp17
sI10
(dp18
sI11
(dp19
sI12
(dp20
sI13
(dp21
sI14
(dp22
sI15
(dp23
sI16
(dp24
sI17
(dp25
sI18
(dp26
sI19
(dp27
sI20
(dp28
sI21
(dp29
sI22
(dp30
sI23
(dp31
sI24
(dp32
sI25
(dp33
sI26
(dp34
sI27
(dp35
sI28
(dp36
sI29
(dp37
sI30
(dp38
sI31
(dp39
sI32
(dp40
sI33
(dp41
sI34
(dp42
sI35
(dp43
sI36
(dp44
sI37
(dp45
sI38
(dp46
sI39
(dp47
sI40
(dp48
sI41
(dp49
sI42
(dp50
sI43
(dp51
sI44
(dp52
sI45
(dp53
sI46
(dp54
sI47
(dp55
sI48
(dp56
sI49
(dp57
sI50
(dp58
sI51
(dp59
sI52
(dp60
sI53
(dp61
sI54
(dp62
sI55
(dp63
sI56
(dp64
sI57
(dp65
sI58
(dp66
sI59
(dp67
sI60
(dp68
sI61
(dp69
sI62
(dp70
sI63
(dp71
sI64
(dp72
sI65
(dp73
sI66
(dp74
sI67
(dp75
sI68
(dp76
sI69
(dp77
sI70
(dp78
sI71
(dp79
sI72
(dp80
sI73
(dp81
sI74
(dp82
sI75
(dp83
sI76
(dp84
sI77
(dp85
sI78
(dp86
sI79
(dp87
sI80
(dp88
sI81
(dp89
sI82
(dp90
sI83
(dp91
sI84
(dp92
sI85
(dp93
sI86
(dp94
sI87
(dp95
sI88
(dp96
sI89
(dp97
sI90
(dp98
sI91
(dp99
sI92
(dp100
sI93
(dp101
sI94
(dp102
sI95
(dp103
sI96
(dp104
sI97
(dp105
sI98
(dp106
sI99
(dp107
sI100
(dp108
sI101
(dp109
sI102
(dp110
sI103
(dp111
sI104
(dp112
sI105
(dp113
sI106
(dp114
sI107
(dp115
sI108
(dp116
sI109
(dp117
sI110
(dp118
sI111
(dp119
sI112
(dp120
sI113
(dp121
sI114
(dp122
sI115
(dp123
sI116
(dp124
sI117
(dp125
sI118
(dp126
sI119
(dp127
sI120
(dp128
sI121
(dp129
sI122
(dp130
sI123
(dp131
sI124
(dp132
sI125
(dp133
sI126
(dp134
sI127
(dp135
sI128
(dp136
sI129
(dp137
sI130
(dp138
sI131
(dp139
sI132
(dp140
sI133
(dp141
sI134
(dp142
sI135
(dp143
sI136
(dp144
sI137
(dp145
sI138
(dp146
sI139
(dp147
sI140
(dp148
sI141
(dp149
sI142
(dp150
sI143
(dp151
sI144
(dp152
sI145
(dp153
sI146
(dp154
sI147
(dp155
sI148
(dp156
sI149
(dp157
sI150
(dp158
sI151
(dp159
sI152
(dp160
sI153
(dp161
sI154
(dp162
sI155
(dp163
sI156
(dp164
sI157
(dp165
sI158
(dp166
sI159
(dp167
sI160
(dp168
sI161
(dp169
sI162
(dp170
sI163
(dp171
sI164
(dp172
sI165
(dp173
sI166
(dp174
sI167
(dp175
sI168
(dp176
sI169
(dp177
sI170
(dp178
sI171
(dp179
sI172
(dp180
sI173
(dp181
sI174
(dp182
sI175
(dp183
sI176
(dp184
sI177
(dp185
sI178
(dp186
sI179
(dp187
sI180
(dp188
sI181
(dp189
sI182
(dp190
sI183
(dp191
sI184
(dp192
sI185
(dp193
sI186
(dp194
sI187
(dp195
sI188
(dp196
sI189
(dp197
sI190
(dp198
sI191
(dp199
sI192
(dp200
sI193
(dp201
sI194
(dp202
sI195
(dp203
sI196
(dp204
sI197
(dp205
sI198
(dp206
sI199
(dp207
ssS'node_dict_factory'
p208
c__builtin__
dict
p209
sS'edge_attr_dict_factory'
p210
g209
sS'edge'
p211
(dp212
I0
(dp213
I130
(dp214
sI100
(dp215
sI103
(dp216
sI136
(dp217
sI137
(dp218
sI106
(dp219
sI167
(dp220
sI194
(dp221
sI110
(dp222
sI144
(dp223
sI113
(dp224
sI115
(dp225
sI174
(dp226
sI119
(dp227
sI153
(dp228
sI122
(dp229
sI190
(dp230
sI159
(dp231
ssI1
(dp232
I132
(dp233
sI135
(dp234
sI136
(dp235
sI140
(dp236
sI141
(dp237
sI142
(dp238
sI144
(dp239
sI150
(dp240
sI164
(dp241
sI165
(dp242
sI166
(dp243
sI177
(dp244
sI190
(dp245
sI100
(dp246
sI101
(dp247
sI102
(dp248
sI104
(dp249
sI106
(dp250
sI107
(dp251
sI112
(dp252
sI113
(dp253
sI114
(dp254
sI121
(dp255
ssI2
(dp256
I129
(dp257
sI100
(dp258
sI101
(dp259
sI102
(dp260
sI103
(dp261
sI105
(dp262
sI138
(dp263
sI107
(dp264
sI108
(dp265
sI109
(dp266
sI110
(dp267
sI112
(dp268
sI196
(dp269
sI118
(dp270
sI119
(dp271
sI132
(dp272
sI123
(dp273
sI135
(dp274
sI150
(dp275
ssI3
(dp276
I130
(dp277
sI187
(dp278
sI100
(dp279
sI102
(dp280
sI162
(dp281
sI168
(dp282
sI105
(dp283
sI170
(dp284
sI109
(dp285
sI111
(dp286
sI173
(dp287
sI178
(dp288
sI188
(dp289
sI117
(dp290
sI151
(dp291
sI184
(dp292
sI153
(dp293
sI122
(dp294
sI143
(dp295
sI124
(dp296
sI181
(dp297
ssI4
(dp298
I160
(dp299
sI131
(dp300
sI101
(dp301
sI102
(dp302
ssI5
(dp303
I100
(dp304
sI101
(dp305
ssI6
(dp306
I101
(dp307
ssI7
(dp308
I138
(dp309
sI133
(dp310
sI102
(dp311
sI103
(dp312
ssI8
(dp313
I193
(dp314
sI100
(dp315
sI134
(dp316
sI102
(dp317
sI169
(dp318
sI108
(dp319
sI117
(dp320
sI118
(dp321
ssI9
(dp322
I121
(dp323
sI175
(dp324
sI108
(dp325
sI191
(dp326
sI103
(dp327
ssI10
(dp328
I156
(dp329
sI186
(dp330
sI100
(dp331
sI161
(dp332
ssI11
(dp333
I100
(dp334
sI166
(dp335
sI171
(dp336
sI108
(dp337
sI146
(dp338
sI115
(dp339
sI116
(dp340
sI182
(dp341
sI124
(dp342
sI157
(dp343
sI127
(dp344
ssI12
(dp345
I104
(dp346
sI160
(dp347
sI163
(dp348
sI102
(dp349
ssI13
(dp350
I129
(dp351
sI101
(dp352
sI102
(dp353
sI147
(dp354
sI120
(dp355
sI158
(dp356
ssI14
(dp357
I178
(dp358
sI103
(dp359
sI137
(dp360
sI171
(dp361
sI109
(dp362
sI114
(dp363
sI148
(dp364
sI169
(dp365
sI125
(dp366
ssI15
(dp367
I128
(dp368
sI102
(dp369
sI199
(dp370
sI175
(dp371
sI113
(dp372
sI116
(dp373
sI120
(dp374
sI180
(dp375
sI159
(dp376
ssI16
(dp377
I192
(dp378
sI101
(dp379
ssI17
(dp380
I113
(dp381
sI106
(dp382
sI188
(dp383
ssI18
(dp384
I161
(dp385
sI155
(dp386
sI101
(dp387
sI134
(dp388
sI105
(dp389
sI139
(dp390
sI172
(dp391
sI141
(dp392
sI143
(dp393
sI123
(dp394
sI157
(dp395
sI127
(dp396
ssI19
(dp397
I180
(dp398
sI148
(dp399
sI101
(dp400
sI102
(dp401
sI125
(dp402
ssI20
(dp403
I184
(dp404
sI139
(dp405
sI102
(dp406
sI103
(dp407
ssI21
(dp408
I193
(dp409
sI101
(dp410
sI103
(dp411
sI177
(dp412
sI152
(dp413
sI185
(dp414
sI197
(dp415
ssI22
(dp416
I105
(dp417
sI114
(dp418
sI196
(dp419
sI133
(dp420
ssI23
(dp421
I128
(dp422
sI168
(dp423
sI100
(dp424
sI103
(dp425
ssI24
(dp426
I154
(dp427
sI100
(dp428
sI103
(dp429
ssI25
(dp430
I113
(dp431
sI126
(dp432
sI102
(dp433
sI173
(dp434
ssI26
(dp435
I131
(dp436
sI164
(dp437
sI140
(dp438
sI111
(dp439
sI176
(dp440
sI113
(dp441
sI152
(dp442
sI154
(dp443
sI126
(dp444
ssI27
(dp445
I100
(dp446
sI109
(dp447
ssI28
(dp448
I103
(dp449
ssI29
(dp450
I113
(dp451
sI114
(dp452
ssI30
(dp453
I146
(dp454
sI187
(dp455
sI103
(dp456
ssI31
(dp457
I107
(dp458
sI156
(dp459
sI117
(dp460
ssI32
(dp461
I104
(dp462
sI145
(dp463
sI195
(dp464
sI100
(dp465
sI165
(dp466
ssI33
(dp467
I194
(dp468
sI102
(dp469
sI172
(dp470
sI179
(dp471
sI181
(dp472
sI121
(dp473
ssI34
(dp474
I176
(dp475
sI116
(dp476
sI100
(dp477
ssI35
(dp478
I105
(dp479
sI102
(dp480
ssI36
(dp481
I100
(dp482
sI101
(dp483
ssI37
(dp484
I100
(dp485
ssI38
(dp486
I145
(dp487
sI195
(dp488
sI109
(dp489
sI142
(dp490
sI119
(dp491
ssI39
(dp492
I105
(dp493
sI147
(dp494
sI197
(dp495
sI103
(dp496
ssI40
(dp497
I105
(dp498
sI100
(dp499
ssI41
(dp500
I155
(dp501
sI100
(dp502
sI126
(dp503
ssI42
(dp504
I121
(dp505
sI138
(dp506
sI149
(dp507
sI185
(dp508
sI151
(dp509
ssI43
(dp510
I138
(dp511
sI149
(dp512
sI102
(dp513
ssI44
(dp514
I112
(dp515
sI106
(dp516
ssI45
(dp517
I108
(dp518
sI126
(dp519
ssI46
(dp520
I136
(dp521
sI119
(dp522
ssI47
(dp523
I113
(dp524
sI143
(dp525
ssI48
(dp526
I138
(dp527
sI133
(dp528
sI158
(dp529
ssI49
(dp530
I112
(dp531
sI108
(dp532
ssI50
(dp533
I138
(dp534
ssI51
(dp535
I107
(dp536
sI100
(dp537
sI189
(dp538
sI174
(dp539
sI191
(dp540
ssI52
(dp541
I139
(dp542
sI102
(dp543
ssI53
(dp544
I100
(dp545
ssI54
(dp546
I100
(dp547
sI103
(dp548
ssI55
(dp549
I112
(dp550
sI102
(dp551
ssI56
(dp552
I153
(dp553
sI142
(dp554
ssI57
(dp555
I126
(dp556
sI102
(dp557
ssI58
(dp558
I170
(dp559
sI107
(dp560
sI199
(dp561
sI135
(dp562
ssI59
(dp563
I153
(dp564
sI162
(dp565
sI102
(dp566
ssI60
(dp567
I154
(dp568
ssI61
(dp569
I102
(dp570
ssI62
(dp571
I123
(dp572
sI102
(dp573
ssI63
(dp574
I101
(dp575
sI110
(dp576
ssI64
(dp577
I102
(dp578
ssI65
(dp579
I100
(dp580
sI142
(dp581
ssI66
(dp582
I122
(dp583
sI142
(dp584
ssI67
(dp585
I113
(dp586
sI100
(dp587
ssI68
(dp588
I138
(dp589
sI101
(dp590
ssI69
(dp591
I116
(dp592
sI100
(dp593
sI183
(dp594
ssI70
(dp595
I125
(dp596
sI102
(dp597
ssI71
(dp598
I192
(dp599
sI100
(dp600
sI103
(dp601
ssI72
(dp602
I146
(dp603
sI101
(dp604
ssI73
(dp605
I159
(dp606
sI179
(dp607
sI135
(dp608
ssI74
(dp609
I154
(dp610
sI162
(dp611
ssI75
(dp612
I138
(dp613
sI102
(dp614
ssI76
(dp615
I152
(dp616
sI129
(dp617
sI186
(dp618
sI189
(dp619
sI198
(dp620
ssI77
(dp621
I101
(dp622
sI198
(dp623
sI127
(dp624
ssI78
(dp625
I176
(dp626
sI182
(dp627
sI127
(dp628
ssI79
(dp629
I129
(dp630
sI110
(dp631
ssI80
(dp632
I101
(dp633
sI117
(dp634
ssI81
(dp635
I108
(dp636
sI100
(dp637
ssI82
(dp638
I103
(dp639
ssI83
(dp640
I105
(dp641
sI133
(dp642
ssI84
(dp643
I113
(dp644
sI118
(dp645
ssI85
(dp646
I131
(dp647
sI108
(dp648
ssI86
(dp649
I109
(dp650
sI133
(dp651
ssI87
(dp652
I177
(dp653
sI101
(dp654
ssI88
(dp655
I113
(dp656
sI116
(dp657
ssI89
(dp658
I178
(dp659
sI143
(dp660
ssI90
(dp661
I145
(dp662
sI143
(dp663
ssI91
(dp664
I113
(dp665
sI159
(dp666
ssI92
(dp667
I108
(dp668
sI100
(dp669
ssI93
(dp670
I149
(dp671
sI103
(dp672
ssI94
(dp673
I100
(dp674
sI133
(dp675
ssI95
(dp676
I108
(dp677
sI133
(dp678
ssI96
(dp679
I104
(dp680
sI136
(dp681
ssI97
(dp682
I101
(dp683
sI111
(dp684
ssI98
(dp685
I122
(dp686
sI123
(dp687
ssI99
(dp688
I136
(dp689
sI149
(dp690
ssI100
(dp691
I0
g215
sI1
g246
sI2
g258
sI3
g279
sI5
g304
sI8
g315
sI10
g331
sI11
g334
sI23
g424
sI24
g428
sI27
g446
sI32
g465
sI34
g477
sI36
g482
sI37
g485
sI40
g499
sI41
g502
sI51
g537
sI53
g545
sI54
g547
sI65
g580
sI67
g587
sI69
g593
sI71
g600
sI81
g637
sI92
g669
sI94
g674
ssI101
(dp692
I68
g590
sI1
g247
sI2
g259
sI4
g301
sI5
g305
sI6
g307
sI97
g683
sI72
g604
sI80
g633
sI13
g352
sI77
g622
sI16
g379
sI18
g387
sI19
g400
sI21
g410
sI87
g654
sI36
g483
sI63
g575
ssI102
(dp693
I1
g248
sI2
g260
sI3
g280
sI4
g302
sI7
g311
sI8
g317
sI12
g349
sI13
g353
sI15
g369
sI19
g401
sI20
g406
sI25
g433
sI33
g469
sI35
g480
sI43
g513
sI52
g543
sI55
g551
sI57
g557
sI59
g566
sI61
g570
sI62
g573
sI64
g578
sI70
g597
sI75
g614
ssI103
(dp694
I0
g216
sI2
g261
sI7
g312
sI9
g327
sI39
g496
sI14
g359
sI82
g639
sI20
g407
sI21
g411
sI54
g548
sI23
g425
sI24
g429
sI71
g601
sI28
g449
sI93
g672
sI30
g456
ssI104
(dp695
I32
g462
sI1
g249
sI12
g346
sI96
g680
ssI105
(dp696
I2
g262
sI35
g479
sI39
g493
sI40
g498
sI83
g641
sI18
g389
sI3
g283
sI22
g417
ssI106
(dp697
I0
g219
sI1
g250
sI44
g516
sI17
g382
ssI107
(dp698
I1
g251
sI2
g264
sI51
g536
sI58
g560
sI31
g458
ssI108
(dp699
I2
g265
sI81
g636
sI8
g319
sI9
g325
sI11
g337
sI45
g518
sI49
g532
sI85
g648
sI92
g668
sI95
g677
ssI109
(dp700
I2
g266
sI3
g285
sI38
g489
sI14
g362
sI86
g650
sI27
g447
ssI110
(dp701
I0
g222
sI2
g267
sI79
g631
sI63
g576
ssI111
(dp702
I97
g684
sI26
g439
sI3
g286
ssI112
(dp703
I1
g252
sI2
g268
sI55
g550
sI44
g515
sI49
g531
ssI113
(dp704
I0
g224
sI1
g253
sI67
g586
sI15
g372
sI17
g381
sI91
g665
sI84
g644
sI88
g656
sI25
g431
sI26
g441
sI47
g524
sI29
g451
ssI114
(dp705
I1
g254
sI22
g418
sI14
g363
sI29
g452
ssI115
(dp706
I0
g225
sI11
g339
ssI116
(dp707
I88
g657
sI34
g476
sI11
g340
sI69
g592
sI15
g373
ssI117
(dp708
I8
g320
sI80
g634
sI3
g290
sI31
g460
ssI118
(dp709
I8
g321
sI2
g270
sI84
g645
ssI119
(dp710
I0
g227
sI2
g271
sI46
g522
sI38
g491
ssI120
(dp711
I13
g355
sI15
g374
ssI121
(dp712
I1
g255
sI42
g505
sI33
g473
sI9
g323
ssI122
(dp713
I0
g229
sI66
g583
sI3
g294
sI98
g686
ssI123
(dp714
I2
g273
sI98
g687
sI18
g394
sI62
g572
ssI124
(dp715
I11
g342
sI3
g296
ssI125
(dp716
I19
g402
sI70
g596
sI14
g366
ssI126
(dp717
I25
g432
sI26
g444
sI57
g556
sI45
g519
sI41
g503
ssI127
(dp718
I18
g396
sI11
g344
sI77
g624
sI78
g628
ssI128
(dp719
I23
g422
sI15
g368
ssI129
(dp720
I2
g257
sI76
g617
sI13
g351
sI79
g630
ssI130
(dp721
I0
g214
sI3
g277
ssI131
(dp722
I26
g436
sI4
g300
sI85
g647
ssI132
(dp723
I1
g233
sI2
g272
ssI133
(dp724
I22
g420
sI7
g310
sI48
g528
sI83
g642
sI86
g651
sI94
g675
sI95
g678
ssI134
(dp725
I8
g316
sI18
g388
ssI135
(dp726
I1
g234
sI2
g274
sI58
g562
sI73
g608
ssI136
(dp727
I0
g217
sI1
g235
sI99
g689
sI46
g521
sI96
g681
ssI137
(dp728
I0
g218
sI14
g360
ssI138
(dp729
I2
g263
sI75
g613
sI68
g589
sI7
g309
sI42
g506
sI43
g511
sI48
g527
sI50
g534
ssI139
(dp730
I52
g542
sI18
g390
sI20
g405
ssI140
(dp731
I1
g236
sI26
g438
ssI141
(dp732
I1
g237
sI18
g392
ssI142
(dp733
I56
g554
sI1
g238
sI66
g584
sI38
g490
sI65
g581
ssI143
(dp734
I89
g660
sI18
g393
sI3
g295
sI90
g663
sI47
g525
ssI144
(dp735
I0
g223
sI1
g239
ssI145
(dp736
I32
g463
sI90
g662
sI38
g487
ssI146
(dp737
I72
g603
sI11
g338
sI30
g454
ssI147
(dp738
I13
g354
sI39
g494
ssI148
(dp739
I19
g399
sI14
g364
ssI149
(dp740
I99
g690
sI42
g507
sI43
g512
sI93
g671
ssI150
(dp741
I1
g240
sI2
g275
ssI151
(dp742
I42
g509
sI3
g291
ssI152
(dp743
I26
g442
sI76
g616
sI21
g413
ssI153
(dp744
I0
g228
sI56
g553
sI3
g293
sI59
g564
ssI154
(dp745
I24
g427
sI26
g443
sI60
g568
sI74
g610
ssI155
(dp746
I41
g501
sI18
g386
ssI156
(dp747
I10
g329
sI31
g459
ssI157
(dp748
I18
g395
sI11
g343
ssI158
(dp749
I48
g529
sI13
g356
ssI159
(dp750
I0
g231
sI73
g606
sI91
g666
sI15
g376
ssI160
(dp751
I12
g347
sI4
g299
ssI161
(dp752
I10
g332
sI18
g385
ssI162
(dp753
I59
g565
sI74
g611
sI3
g281
ssI163
(dp754
I12
g348
ssI164
(dp755
I1
g241
sI26
g437
ssI165
(dp756
I32
g466
sI1
g242
ssI166
(dp757
I1
g243
sI11
g335
ssI167
(dp758
I0
g220
ssI168
(dp759
I3
g282
sI23
g423
ssI169
(dp760
I8
g318
sI14
g365
ssI170
(dp761
I58
g559
sI3
g284
ssI171
(dp762
I11
g336
sI14
g361
ssI172
(dp763
I33
g470
sI18
g391
ssI173
(dp764
I25
g434
sI3
g287
ssI174
(dp765
I0
g226
sI51
g539
ssI175
(dp766
I9
g324
sI15
g371
ssI176
(dp767
I26
g440
sI34
g475
sI78
g626
ssI177
(dp768
I1
g244
sI21
g412
sI87
g653
ssI178
(dp769
I89
g659
sI3
g288
sI14
g358
ssI179
(dp770
I33
g471
sI73
g607
ssI180
(dp771
I19
g398
sI15
g375
ssI181
(dp772
I33
g472
sI3
g297
ssI182
(dp773
I11
g341
sI78
g627
ssI183
(dp774
I69
g594
ssI184
(dp775
I3
g292
sI20
g404
ssI185
(dp776
I42
g508
sI21
g414
ssI186
(dp777
I10
g330
sI76
g618
ssI187
(dp778
I3
g278
sI30
g455
ssI188
(dp779
I17
g383
sI3
g289
ssI189
(dp780
I51
g538
sI76
g619
ssI190
(dp781
I0
g230
sI1
g245
ssI191
(dp782
I9
g326
sI51
g540
ssI192
(dp783
I16
g378
sI71
g599
ssI193
(dp784
I8
g314
sI21
g409
ssI194
(dp785
I0
g221
sI33
g468
ssI195
(dp786
I32
g464
sI38
g488
ssI196
(dp787
I2
g269
sI22
g419
ssI197
(dp788
I21
g415
sI39
g495
ssI198
(dp789
I76
g620
sI77
g623
ssI199
(dp790
I58
g561
sI15
g370
sssS'graph'
p791
(dp792
sS'adjlist_dict_factory'
p793
g209
sS'adj'
p794
g212
sb.