ccopy_reg
_reconstructor
p0
(cnetworkx.classes.graph
Graph
p1
c__builtin__
object
p2
Ntp3
Rp4
(dp5
S'node'
p6
(dp7
I0
(dp8
sI1
(dp9
sI2
(dp10
sI3
(dp11
sI4
(dp12
sI5
(dp13
sI6
(dp14
sI7
(dp15
sI8
(dp16
sI9
(dp17
sI10
(dp18
sI11
(dp19
sI12
(dp20
sI13
(dp21
sI14
(dp22
sI15
(dp23
sI16
(dp24
sI17
(dp25
sI18
(dp26
sI19
(dp27
sI20
(dp28
sI21
(dp29
sI22
(dp30
sI23
(dp31
sI24
(dp32
sI25
(dp33
sI26
(dp34
sI27
(dp35
sI28
(dp36
sI29
(dp37
sI30
(dp38
sI31
(dp39
sI32
(dp40
sI33
(dp41
sI34
(dp42
sI35
(dp43
sI36
(dp44
sI37
(dp45
sI38
(dp46
sI39
(dp47
sI40
(dp48
sI41
(dp49
sI42
(dp50
sI43
(dp51
sI44
(dp52
sI45
(dp53
sI46
(dp54
sI47
(dp55
sI48
(dp56
sI49
(dp57
sI50
(dp58
sI51
(dp59
sI52
(dp60
sI53
(dp61
sI54
(dp62
sI55
(dp63
sI56
(dp64
sI57
(dp65
sI58
(dp66
sI59
(dp67
sI60
(dp68
sI61
(dp69
sI62
(dp70
sI63
(dp71
sI64
(dp72
sI65
(dp73
sI66
(dp74
sI67
(dp75
sI68
(dp76
sI69
(dp77
sI70
(dp78
sI71
(dp79
sI72
(dp80
sI73
(dp81
sI74
(dp82
sI75
(dp83
sI76
(dp84
sI77
(dp85
sI78
(dp86
sI79
(dp87
sI80
(dp88
sI81
(dp89
sI82
(dp90
sI83
(dp91
sI84
(dp92
sI85
(dp93
sI86
(dp94
sI87
(dp95
sI88
(dp96
sI89
(dp97
sI90
(dp98
sI91
(dp99
sI92
(dp100
sI93
(dp101
sI94
(dp102
sI95
(dp103
sI96
(dp104
sI97
(dp105
sI98
(dp106
sI99
(dp107
sI100
(dp108
sI101
(dp109
sI102
(dp110
sI103
(dp111
sI104
(dp112
sI105
(dp113
sI106
(dp114
sI107
(dp115
sI108
(dp116
sI109
(dp117
sI110
(dp118
sI111
(dp119
sI112
(dp120
sI113
(dp121
sI114
(dp122
sI115
(dp123
sI116
(dp124
sI117
(dp125
sI118
(dp126
sI119
(dp127
sI120
(dp128
sI121
(dp129
sI122
(dp130
sI123
(dp131
sI124
(dp132
sI125
(dp133
sI126
(dp134
sI127
(dp135
sI128
(dp136
sI129
(dp137
sI130
(dp138
sI131
(dp139
sI132
(dp140
sI133
(dp141
sI134
(dp142
sI135
(dp143
sI136
(dp144
sI137
(dp145
sI138
(dp146
sI139
(dp147
sI140
(dp148
sI141
(dp149
sI142
(dp150
sI143
(dp151
sI144
(dp152
sI145
(dp153
sI146
(dp154
sI147
(dp155
sI148
(dp156
sI149
(dp157
sI150
(dp158
sI151
(dp159
sI152
(dp160
sI153
(dp161
sI154
(dp162
sI155
(dp163
sI156
(dp164
sI157
(dp165
sI158
(dp166
sI159
(dp167
sI160
(dp168
sI161
(dp169
sI162
(dp170
sI163
(dp171
sI164
(dp172
sI165
(dp173
sI166
(dp174
sI167
(dp175
sI168
(dp176
sI169
(dp177
sI170
(dp178
sI171
(dp179
sI172
(dp180
sI173
(dp181
sI174
(dp182
sI175
(dp183
sI176
(dp184
sI177
(dp185
sI178
(dp186
sI179
(dp187
sI180
(dp188
sI181
(dp189
sI182
(dp190
sI183
(dp191
sI184
(dp192
sI185
(dp193
sI186
(dp194
sI187
(dp195
sI188
(dp196
sI189
(dp197
sI190
(dp198
sI191
(dp199
sI192
(dp200
sI193
(dp201
sI194
(dp202
sI195
(dp203
sI196
(dp204
sI197
(dp205
sI198
(dp206
sI199
(dp207
ssS'node_dict_factory'
p208
c__builtin__
dict
p209
sS'edge_attr_dict_factory'
p210
g209
sS'edge'
p211
(dp212
I0
(dp213
I112
(dp214
sI171
(dp215
sI100
(dp216
sI101
(dp217
sI102
(dp218
ssI1
(dp219
I129
(dp220
sI130
(dp221
sI131
(dp222
sI132
(dp223
sI136
(dp224
sI137
(dp225
sI143
(dp226
sI144
(dp227
sI148
(dp228
sI149
(dp229
sI150
(dp230
sI152
(dp231
sI156
(dp232
sI157
(dp233
sI168
(dp234
sI172
(dp235
sI173
(dp236
sI175
(dp237
sI179
(dp238
sI184
(dp239
sI187
(dp240
sI193
(dp241
sI196
(dp242
sI197
(dp243
sI198
(dp244
sI100
(dp245
sI101
(dp246
sI102
(dp247
sI103
(dp248
sI104
(dp249
sI105
(dp250
sI106
(dp251
sI108
(dp252
sI109
(dp253
sI113
(dp254
sI116
(dp255
sI121
(dp256
ssI2
(dp257
I136
(dp258
sI107
(dp259
sI101
(dp260
sI166
(dp261
ssI3
(dp262
I128
(dp263
sI133
(dp264
sI135
(dp265
sI143
(dp266
sI145
(dp267
sI146
(dp268
sI150
(dp269
sI151
(dp270
sI154
(dp271
sI158
(dp272
sI160
(dp273
sI162
(dp274
sI173
(dp275
sI176
(dp276
sI178
(dp277
sI180
(dp278
sI194
(dp279
sI100
(dp280
sI101
(dp281
sI103
(dp282
sI105
(dp283
sI106
(dp284
sI107
(dp285
sI109
(dp286
sI110
(dp287
sI111
(dp288
sI112
(dp289
sI115
(dp290
sI116
(dp291
sI124
(dp292
sI125
(dp293
sI127
(dp294
ssI4
(dp295
I114
(dp296
sI101
(dp297
ssI5
(dp298
I122
(dp299
sI101
(dp300
sI110
(dp301
sI117
(dp302
ssI6
(dp303
I193
(dp304
sI162
(dp305
sI100
(dp306
sI104
(dp307
sI140
(dp308
sI148
(dp309
sI118
(dp310
sI119
(dp311
sI122
(dp312
ssI7
(dp313
I104
(dp314
sI121
(dp315
sI186
(dp316
sI134
(dp317
sI169
(dp318
ssI8
(dp319
I132
(dp320
sI101
(dp321
sI199
(dp322
sI107
(dp323
sI108
(dp324
sI145
(dp325
sI182
(dp326
ssI9
(dp327
I104
(dp328
sI111
(dp329
sI182
(dp330
sI103
(dp331
ssI10
(dp332
I101
(dp333
sI105
(dp334
sI115
(dp335
sI137
(dp336
sI186
(dp337
sI191
(dp338
ssI11
(dp339
I160
(dp340
sI161
(dp341
sI130
(dp342
sI163
(dp343
sI100
(dp344
sI170
(dp345
sI107
(dp346
sI179
(dp347
sI119
(dp348
sI157
(dp349
sI191
(dp350
ssI12
(dp351
I101
(dp352
ssI13
(dp353
I164
(dp354
sI101
(dp355
sI146
(dp356
sI138
(dp357
sI109
(dp358
sI113
(dp359
sI114
(dp360
sI118
(dp361
sI183
(dp362
sI126
(dp363
ssI14
(dp364
I196
(dp365
sI134
(dp366
sI167
(dp367
sI140
(dp368
sI142
(dp369
sI112
(dp370
sI113
(dp371
sI117
(dp372
sI120
(dp373
sI123
(dp374
sI159
(dp375
ssI15
(dp376
I164
(dp377
sI101
(dp378
sI168
(dp379
sI113
(dp380
sI124
(dp381
sI126
(dp382
sI127
(dp383
ssI16
(dp384
I101
(dp385
sI106
(dp386
sI139
(dp387
sI144
(dp388
sI120
(dp389
sI185
(dp390
ssI17
(dp391
I101
(dp392
ssI18
(dp393
I104
(dp394
sI114
(dp395
ssI19
(dp396
I154
(dp397
sI131
(dp398
sI100
(dp399
sI101
(dp400
sI190
(dp401
ssI20
(dp402
I180
(dp403
sI109
(dp404
sI103
(dp405
ssI21
(dp406
I129
(dp407
sI100
(dp408
sI169
(dp409
sI103
(dp410
ssI22
(dp411
I116
(dp412
sI138
(dp413
sI172
(dp414
sI100
(dp415
sI149
(dp416
ssI23
(dp417
I192
(dp418
sI104
(dp419
sI106
(dp420
sI181
(dp421
sI155
(dp422
sI189
(dp423
ssI24
(dp424
I128
(dp425
sI105
(dp426
sI170
(dp427
sI101
(dp428
sI189
(dp429
ssI25
(dp430
I109
(dp431
sI117
(dp432
ssI26
(dp433
I117
(dp434
sI103
(dp435
ssI27
(dp436
I161
(dp437
sI106
(dp438
sI198
(dp439
sI103
(dp440
ssI28
(dp441
I104
(dp442
sI167
(dp443
sI100
(dp444
sI159
(dp445
ssI29
(dp446
I171
(dp447
sI116
(dp448
sI101
(dp449
sI165
(dp450
ssI30
(dp451
I113
(dp452
sI103
(dp453
ssI31
(dp454
I106
(dp455
sI147
(dp456
sI100
(dp457
ssI32
(dp458
I195
(dp459
sI100
(dp460
sI133
(dp461
sI135
(dp462
sI104
(dp463
sI141
(dp464
sI158
(dp465
sI165
(dp466
ssI33
(dp467
I132
(dp468
sI100
(dp469
ssI34
(dp470
I129
(dp471
sI132
(dp472
ssI35
(dp473
I113
(dp474
sI139
(dp475
sI102
(dp476
sI153
(dp477
ssI36
(dp478
I100
(dp479
ssI37
(dp480
I100
(dp481
ssI38
(dp482
I100
(dp483
sI101
(dp484
ssI39
(dp485
I113
(dp486
sI131
(dp487
ssI40
(dp488
I192
(dp489
sI163
(dp490
sI107
(dp491
sI141
(dp492
sI142
(dp493
sI112
(dp494
sI177
(dp495
sI151
(dp496
sI188
(dp497
ssI41
(dp498
I147
(dp499
sI101
(dp500
sI118
(dp501
ssI42
(dp502
I155
(dp503
sI101
(dp504
sI102
(dp505
sI183
(dp506
ssI43
(dp507
I132
(dp508
sI108
(dp509
sI153
(dp510
ssI44
(dp511
I114
(dp512
sI107
(dp513
ssI45
(dp514
I126
(dp515
sI127
(dp516
ssI46
(dp517
I105
(dp518
sI101
(dp519
sI185
(dp520
sI181
(dp521
ssI47
(dp522
I107
(dp523
sI135
(dp524
ssI48
(dp525
I112
(dp526
sI137
(dp527
ssI49
(dp528
I114
(dp529
sI101
(dp530
ssI50
(dp531
I152
(dp532
sI139
(dp533
sI125
(dp534
ssI51
(dp535
I112
(dp536
sI113
(dp537
sI156
(dp538
ssI52
(dp539
I101
(dp540
sI134
(dp541
ssI53
(dp542
I177
(dp543
sI115
(dp544
sI188
(dp545
sI166
(dp546
sI103
(dp547
ssI54
(dp548
I112
(dp549
sI187
(dp550
sI118
(dp551
ssI55
(dp552
I104
(dp553
sI108
(dp554
ssI56
(dp555
I126
(dp556
sI127
(dp557
ssI57
(dp558
I126
(dp559
sI103
(dp560
ssI58
(dp561
I113
(dp562
sI100
(dp563
sI199
(dp564
ssI59
(dp565
I178
(dp566
sI149
(dp567
sI118
(dp568
sI190
(dp569
ssI60
(dp570
I137
(dp571
sI101
(dp572
ssI61
(dp573
I155
(dp574
sI102
(dp575
sI175
(dp576
ssI62
(dp577
I148
(dp578
sI108
(dp579
sI174
(dp580
ssI63
(dp581
I112
(dp582
sI137
(dp583
ssI64
(dp584
I138
(dp585
sI194
(dp586
sI126
(dp587
ssI65
(dp588
I114
(dp589
sI133
(dp590
ssI66
(dp591
I176
(dp592
sI184
(dp593
sI107
(dp594
sI100
(dp595
ssI67
(dp596
I114
(dp597
sI118
(dp598
ssI68
(dp599
I109
(dp600
sI118
(dp601
ssI69
(dp602
I136
(dp603
sI141
(dp604
ssI70
(dp605
I138
(dp606
sI174
(dp607
sI103
(dp608
ssI71
(dp609
I104
(dp610
sI140
(dp611
ssI72
(dp612
I140
(dp613
sI126
(dp614
ssI73
(dp615
I113
(dp616
sI169
(dp617
ssI74
(dp618
I162
(dp619
sI100
(dp620
ssI75
(dp621
I122
(dp622
sI117
(dp623
ssI76
(dp624
I120
(dp625
sI125
(dp626
ssI77
(dp627
I112
(dp628
sI118
(dp629
ssI78
(dp630
I106
(dp631
sI134
(dp632
ssI79
(dp633
I156
(dp634
sI132
(dp635
sI197
(dp636
ssI80
(dp637
I113
(dp638
sI100
(dp639
ssI81
(dp640
I148
(dp641
sI127
(dp642
ssI82
(dp643
I107
(dp644
sI166
(dp645
ssI83
(dp646
I180
(dp647
sI101
(dp648
ssI84
(dp649
I100
(dp650
sI126
(dp651
ssI85
(dp652
I101
(dp653
sI151
(dp654
ssI86
(dp655
I121
(dp656
sI118
(dp657
ssI87
(dp658
I101
(dp659
sI127
(dp660
ssI88
(dp661
I129
(dp662
sI101
(dp663
ssI89
(dp664
I131
(dp665
sI103
(dp666
ssI90
(dp667
I171
(dp668
sI101
(dp669
ssI91
(dp670
I159
(dp671
sI103
(dp672
ssI92
(dp673
I138
(dp674
sI195
(dp675
sI167
(dp676
ssI93
(dp677
I131
(dp678
sI117
(dp679
ssI94
(dp680
I101
(dp681
sI157
(dp682
ssI95
(dp683
I136
(dp684
sI137
(dp685
ssI96
(dp686
I101
(dp687
sI127
(dp688
ssI97
(dp689
I117
(dp690
sI181
(dp691
ssI98
(dp692
I163
(dp693
sI166
(dp694
ssI99
(dp695
I104
(dp696
sI130
(dp697
ssI100
(dp698
I0
g216
sI1
g245
sI66
g595
sI3
g280
sI36
g479
sI33
g469
sI6
g306
sI32
g460
sI74
g620
sI11
g344
sI80
g639
sI19
g399
sI84
g650
sI21
g408
sI22
g415
sI58
g563
sI38
g483
sI28
g444
sI37
g481
sI31
g457
ssI101
(dp699
I0
g217
sI1
g246
sI2
g260
sI3
g281
sI4
g297
sI5
g300
sI8
g321
sI10
g333
sI12
g352
sI13
g355
sI15
g378
sI16
g385
sI17
g392
sI19
g400
sI24
g428
sI29
g449
sI38
g484
sI41
g500
sI42
g504
sI46
g519
sI49
g530
sI52
g540
sI60
g572
sI83
g648
sI85
g653
sI87
g659
sI88
g663
sI90
g669
sI94
g681
sI96
g687
ssI102
(dp700
I0
g218
sI1
g247
sI42
g505
sI35
g476
sI61
g575
ssI103
(dp701
I1
g248
sI3
g282
sI70
g608
sI9
g331
sI91
g672
sI20
g405
sI21
g410
sI89
g666
sI57
g560
sI26
g435
sI27
g440
sI30
g453
sI53
g547
ssI104
(dp702
I32
g463
sI1
g249
sI99
g696
sI6
g307
sI7
g314
sI9
g328
sI55
g553
sI18
g394
sI23
g419
sI71
g610
sI28
g442
ssI105
(dp703
I24
g426
sI1
g250
sI10
g334
sI3
g283
sI46
g518
ssI106
(dp704
I1
g251
sI3
g284
sI78
g631
sI16
g386
sI23
g420
sI27
g438
sI31
g455
ssI107
(dp705
I2
g259
sI3
g285
sI8
g323
sI11
g346
sI44
g513
sI66
g594
sI47
g523
sI40
g491
sI82
g644
ssI108
(dp706
I8
g324
sI1
g252
sI43
g509
sI62
g579
sI55
g554
ssI109
(dp707
I1
g253
sI3
g286
sI68
g600
sI13
g358
sI20
g404
sI25
g431
ssI110
(dp708
I3
g287
sI5
g301
ssI111
(dp709
I9
g329
sI3
g288
ssI112
(dp710
I0
g214
sI3
g289
sI40
g494
sI77
g628
sI14
g370
sI48
g526
sI51
g536
sI54
g549
sI63
g582
ssI113
(dp711
I1
g254
sI35
g474
sI39
g486
sI73
g616
sI13
g359
sI14
g371
sI15
g380
sI80
g638
sI51
g537
sI58
g562
sI30
g452
ssI114
(dp712
I65
g589
sI67
g597
sI4
g296
sI44
g512
sI13
g360
sI49
g529
sI18
g395
ssI115
(dp713
I10
g335
sI3
g290
sI53
g544
ssI116
(dp714
I1
g255
sI3
g291
sI29
g448
sI22
g412
ssI117
(dp715
I97
g690
sI5
g302
sI75
g623
sI14
g372
sI25
g432
sI26
g434
sI93
g679
ssI118
(dp716
I67
g598
sI68
g601
sI86
g657
sI6
g310
sI41
g501
sI13
g361
sI77
g629
sI54
g551
sI59
g568
ssI119
(dp717
I11
g348
sI6
g311
ssI120
(dp718
I16
g389
sI76
g625
sI14
g373
ssI121
(dp719
I1
g256
sI86
g656
sI7
g315
ssI122
(dp720
I75
g622
sI5
g299
sI6
g312
ssI123
(dp721
I14
g374
ssI124
(dp722
I3
g292
sI15
g381
ssI125
(dp723
I50
g534
sI3
g293
sI76
g626
ssI126
(dp724
I64
g587
sI72
g614
sI45
g515
sI13
g363
sI84
g651
sI56
g556
sI57
g559
sI15
g382
ssI127
(dp725
I96
g688
sI3
g294
sI45
g516
sI15
g383
sI81
g642
sI87
g660
sI56
g557
ssI128
(dp726
I24
g425
sI3
g263
ssI129
(dp727
I88
g662
sI1
g220
sI34
g471
sI21
g407
ssI130
(dp728
I99
g697
sI1
g221
sI11
g342
ssI131
(dp729
I1
g222
sI19
g398
sI93
g678
sI89
g665
sI39
g487
ssI132
(dp730
I1
g223
sI34
g472
sI33
g468
sI8
g320
sI43
g508
sI79
g635
ssI133
(dp731
I32
g461
sI65
g590
sI3
g264
ssI134
(dp732
I52
g541
sI78
g632
sI14
g366
sI7
g317
ssI135
(dp733
I32
g462
sI3
g265
sI47
g524
ssI136
(dp734
I1
g224
sI2
g258
sI69
g603
sI95
g684
ssI137
(dp735
I1
g225
sI10
g336
sI48
g527
sI63
g583
sI60
g571
sI95
g685
ssI138
(dp736
I64
g585
sI92
g674
sI70
g606
sI13
g357
sI22
g413
ssI139
(dp737
I16
g387
sI50
g533
sI35
g475
ssI140
(dp738
I72
g613
sI14
g368
sI6
g308
sI71
g611
ssI141
(dp739
I32
g464
sI40
g492
sI69
g604
ssI142
(dp740
I40
g493
sI14
g369
ssI143
(dp741
I1
g226
sI3
g266
ssI144
(dp742
I16
g388
sI1
g227
ssI145
(dp743
I8
g325
sI3
g267
ssI146
(dp744
I3
g268
sI13
g356
ssI147
(dp745
I41
g499
sI31
g456
ssI148
(dp746
I1
g228
sI62
g578
sI6
g309
sI81
g641
ssI149
(dp747
I1
g229
sI59
g567
sI22
g416
ssI150
(dp748
I1
g230
sI3
g269
ssI151
(dp749
I40
g496
sI3
g270
sI85
g654
ssI152
(dp750
I1
g231
sI50
g532
ssI153
(dp751
I43
g510
sI35
g477
ssI154
(dp752
I19
g397
sI3
g271
ssI155
(dp753
I42
g503
sI61
g574
sI23
g422
ssI156
(dp754
I1
g232
sI51
g538
sI79
g634
ssI157
(dp755
I1
g233
sI11
g349
sI94
g682
ssI158
(dp756
I32
g465
sI3
g272
ssI159
(dp757
I91
g671
sI28
g445
sI14
g375
ssI160
(dp758
I11
g340
sI3
g273
ssI161
(dp759
I27
g437
sI11
g341
ssI162
(dp760
I74
g619
sI3
g274
sI6
g305
ssI163
(dp761
I40
g490
sI98
g693
sI11
g343
ssI164
(dp762
I13
g354
sI15
g377
ssI165
(dp763
I32
g466
sI29
g450
ssI166
(dp764
I2
g261
sI98
g694
sI82
g645
sI53
g546
ssI167
(dp765
I92
g676
sI28
g443
sI14
g367
ssI168
(dp766
I1
g234
sI15
g379
ssI169
(dp767
I73
g617
sI21
g409
sI7
g318
ssI170
(dp768
I24
g427
sI11
g345
ssI171
(dp769
I0
g215
sI90
g668
sI29
g447
ssI172
(dp770
I1
g235
sI22
g414
ssI173
(dp771
I1
g236
sI3
g275
ssI174
(dp772
I70
g607
sI62
g580
ssI175
(dp773
I1
g237
sI61
g576
ssI176
(dp774
I66
g592
sI3
g276
ssI177
(dp775
I40
g495
sI53
g543
ssI178
(dp776
I59
g566
sI3
g277
ssI179
(dp777
I1
g238
sI11
g347
ssI180
(dp778
I83
g647
sI3
g278
sI20
g403
ssI181
(dp779
I97
g691
sI46
g521
sI23
g421
ssI182
(dp780
I8
g326
sI9
g330
ssI183
(dp781
I42
g506
sI13
g362
ssI184
(dp782
I1
g239
sI66
g593
ssI185
(dp783
I16
g390
sI46
g520
ssI186
(dp784
I10
g337
sI7
g316
ssI187
(dp785
I1
g240
sI54
g550
ssI188
(dp786
I40
g497
sI53
g545
ssI189
(dp787
I24
g429
sI23
g423
ssI190
(dp788
I59
g569
sI19
g401
ssI191
(dp789
I10
g338
sI11
g350
ssI192
(dp790
I40
g489
sI23
g418
ssI193
(dp791
I1
g241
sI6
g304
ssI194
(dp792
I64
g586
sI3
g279
ssI195
(dp793
I32
g459
sI92
g675
ssI196
(dp794
I1
g242
sI14
g365
ssI197
(dp795
I1
g243
sI79
g636
ssI198
(dp796
I1
g244
sI27
g439
ssI199
(dp797
I8
g322
sI58
g564
sssS'graph'
p798
(dp799
sS'adjlist_dict_factory'
p800
g209
sS'adj'
p801
g212
sb.