ccopy_reg
_reconstructor
p0
(cnetworkx.classes.graph
Graph
p1
c__builtin__
object
p2
Ntp3
Rp4
(dp5
S'node'
p6
(dp7
I0
(dp8
sI1
(dp9
sI2
(dp10
sI3
(dp11
sI4
(dp12
sI5
(dp13
sI6
(dp14
sI7
(dp15
sI8
(dp16
sI9
(dp17
sI10
(dp18
sI11
(dp19
sI12
(dp20
sI13
(dp21
sI14
(dp22
sI15
(dp23
sI16
(dp24
sI17
(dp25
sI18
(dp26
sI19
(dp27
sI20
(dp28
sI21
(dp29
sI22
(dp30
sI23
(dp31
sI24
(dp32
sI25
(dp33
sI26
(dp34
sI27
(dp35
sI28
(dp36
sI29
(dp37
sI30
(dp38
sI31
(dp39
sI32
(dp40
sI33
(dp41
sI34
(dp42
sI35
(dp43
sI36
(dp44
sI37
(dp45
sI38
(dp46
sI39
(dp47
sI40
(dp48
sI41
(dp49
sI42
(dp50
sI43
(dp51
sI44
(dp52
sI45
(dp53
sI46
(dp54
sI47
(dp55
sI48
(dp56
sI49
(dp57
sI50
(dp58
sI51
(dp59
sI52
(dp60
sI53
(dp61
sI54
(dp62
sI55
(dp63
sI56
(dp64
sI57
(dp65
sI58
(dp66
sI59
(dp67
sI60
(dp68
sI61
(dp69
sI62
(dp70
sI63
(dp71
sI64
(dp72
sI65
(dp73
sI66
(dp74
sI67
(dp75
sI68
(dp76
sI69
(dp77
sI70
(dp78
sI71
(dp79
sI72
(dp80
sI73
(dp81
sI74
(dp82
sI75
(dp83
sI76
(dp84
sI77
(dp85
sI78
(dp86
sI79
(dp87
sI80
(dp88
sI81
(dp89
sI82
(dp90
sI83
(dp91
sI84
(dp92
sI85
(dp93
sI86
(dp94
sI87
(dp95
sI88
(dp96
sI89
(dp97
sI90
(dp98
sI91
(dp99
sI92
(dp100
sI93
(dp101
sI94
(dp102
sI95
(dp103
sI96
(dp104
sI97
(dp105
sI98
(dp106
sI99
(dp107
sI100
(dp108
sI101
(dp109
sI102
(dp110
sI103
(dp111
sI104
(dp112
sI105
(dp113
sI106
(dp114
sI107
(dp115
sI108
(dp116
sI109
(dp117
sI110
(dp118
sI111
(dp119
sI112
(dp120
sI113
(dp121
sI114
(dp122
sI115
(dp123
sI116
(dp124
sI117
(dp125
sI118
(dp126
sI119
(dp127
sI120
(dp128
sI121
(dp129
sI122
(dp130
sI123
(dp131
sI124
(dp132
sI125
(dp133
sI126
(dp134
sI127
(dp135
sI128
(dp136
sI129
(dp137
sI130
(dp138
sI131
(dp139
sI132
(dp140
sI133
(dp141
sI134
(dp142
sI135
(dp143
sI136
(dp144
sI137
(dp145
sI138
(dp146
sI139
(dp147
sI140
(dp148
sI141
(dp149
sI142
(dp150
sI143
(dp151
sI144
(dp152
sI145
(dp153
sI146
(dp154
sI147
(dp155
sI148
(dp156
sI149
(dp157
sI150
(dp158
sI151
(dp159
sI152
(dp160
sI153
(dp161
sI154
(dp162
sI155
(dp163
sI156
(dp164
sI157
(dp165
sI158
(dp166
sI159
(dp167
sI160
(dp168
sI161
(dp169
sI162
(dp170
sI163
(dp171
sI164
(dp172
sI165
(dp173
sI166
(dp174
sI167
(dp175
sI168
(dp176
sI169
(dp177
sI170
(dp178
sI171
(dp179
sI172
(dp180
sI173
(dp181
sI174
(dp182
sI175
(dp183
sI176
(dp184
sI177
(dp185
sI178
(dp186
sI179
(dp187
sI180
(dp188
sI181
(dp189
sI182
(dp190
sI183
(dp191
sI184
(dp192
sI185
(dp193
sI186
(dp194
sI187
(dp195
sI188
(dp196
sI189
(dp197
sI190
(dp198
sI191
(dp199
sI192
(dp200
sI193
(dp201
sI194
(dp202
sI195
(dp203
sI196
(dp204
sI197
(dp205
sI198
(dp206
sI199
(dp207
ssS'node_dict_factory'
p208
c__builtin__
dict
p209
sS'edge_attr_dict_factory'
p210
g209
sS'edge'
p211
(dp212
I0
(dp213
I128
(dp214
sI129
(dp215
sI130
(dp216
sI139
(dp217
sI144
(dp218
sI147
(dp219
sI148
(dp220
sI151
(dp221
sI155
(dp222
sI156
(dp223
sI159
(dp224
sI161
(dp225
sI162
(dp226
sI172
(dp227
sI181
(dp228
sI182
(dp229
sI185
(dp230
sI188
(dp231
sI189
(dp232
sI194
(dp233
sI195
(dp234
sI100
(dp235
sI101
(dp236
sI102
(dp237
sI103
(dp238
sI105
(dp239
sI108
(dp240
sI109
(dp241
sI111
(dp242
sI112
(dp243
sI117
(dp244
sI121
(dp245
sI122
(dp246
sI124
(dp247
sI125
(dp248
ssI1
(dp249
I132
(dp250
sI104
(dp251
sI110
(dp252
sI152
(dp253
sI116
(dp254
sI120
(dp255
sI100
(dp256
ssI2
(dp257
I131
(dp258
sI135
(dp259
sI137
(dp260
sI141
(dp261
sI142
(dp262
sI143
(dp263
sI146
(dp264
sI147
(dp265
sI148
(dp266
sI150
(dp267
sI154
(dp268
sI168
(dp269
sI174
(dp270
sI176
(dp271
sI179
(dp272
sI189
(dp273
sI100
(dp274
sI101
(dp275
sI102
(dp276
sI104
(dp277
sI105
(dp278
sI107
(dp279
sI108
(dp280
sI110
(dp281
sI113
(dp282
sI114
(dp283
sI115
(dp284
sI116
(dp285
sI121
(dp286
sI124
(dp287
ssI3
(dp288
I106
(dp289
sI100
(dp290
ssI4
(dp291
I100
(dp292
sI157
(dp293
sI102
(dp294
ssI5
(dp295
I100
(dp296
ssI6
(dp297
I192
(dp298
sI100
(dp299
sI105
(dp300
sI107
(dp301
sI140
(dp302
sI173
(dp303
sI111
(dp304
sI114
(dp305
sI119
(dp306
sI153
(dp307
sI126
(dp308
sI127
(dp309
ssI7
(dp310
I161
(dp311
sI100
(dp312
ssI8
(dp313
I131
(dp314
sI134
(dp315
sI104
(dp316
sI107
(dp317
sI109
(dp318
sI149
(dp319
sI190
(dp320
ssI9
(dp321
I104
(dp322
sI100
(dp323
ssI10
(dp324
I160
(dp325
sI130
(dp326
sI100
(dp327
sI102
(dp328
sI135
(dp329
sI175
(dp330
sI117
(dp331
sI119
(dp332
sI164
(dp333
sI123
(dp334
ssI11
(dp335
I144
(dp336
sI163
(dp337
sI197
(dp338
sI104
(dp339
sI137
(dp340
sI139
(dp341
sI108
(dp342
sI112
(dp343
sI113
(dp344
sI140
(dp345
sI123
(dp346
ssI12
(dp347
I105
(dp348
sI132
(dp349
sI100
(dp350
sI118
(dp351
ssI13
(dp352
I129
(dp353
sI107
(dp354
sI102
(dp355
ssI14
(dp356
I107
(dp357
sI159
(dp358
sI133
(dp359
sI110
(dp360
sI141
(dp361
ssI15
(dp362
I113
(dp363
sI115
(dp364
sI110
(dp365
ssI16
(dp366
I101
(dp367
sI111
(dp368
ssI17
(dp369
I195
(dp370
sI105
(dp371
sI142
(dp372
sI113
(dp373
sI180
(dp374
sI118
(dp375
sI120
(dp376
sI122
(dp377
sI188
(dp378
ssI18
(dp379
I112
(dp380
sI178
(dp381
sI100
(dp382
ssI19
(dp383
I105
(dp384
sI110
(dp385
ssI20
(dp386
I145
(dp387
sI111
(dp388
ssI21
(dp389
I107
(dp390
sI111
(dp391
ssI22
(dp392
I105
(dp393
sI138
(dp394
sI116
(dp395
ssI23
(dp396
I187
(dp397
sI110
(dp398
sI102
(dp399
ssI24
(dp400
I184
(dp401
sI122
(dp402
sI180
(dp403
sI117
(dp404
sI126
(dp405
ssI25
(dp406
I128
(dp407
sI105
(dp408
sI171
(dp409
sI109
(dp410
sI133
(dp411
ssI26
(dp412
I110
(dp413
ssI27
(dp414
I100
(dp415
sI103
(dp416
ssI28
(dp417
I104
(dp418
sI100
(dp419
sI197
(dp420
ssI29
(dp421
I164
(dp422
sI102
(dp423
sI134
(dp424
sI199
(dp425
sI136
(dp426
sI183
(dp427
sI123
(dp428
sI157
(dp429
sI165
(dp430
ssI30
(dp431
I107
(dp432
sI100
(dp433
sI151
(dp434
ssI31
(dp435
I105
(dp436
sI178
(dp437
sI175
(dp438
sI146
(dp439
sI119
(dp440
sI184
(dp441
sI185
(dp442
ssI32
(dp443
I100
(dp444
sI166
(dp445
sI171
(dp446
sI173
(dp447
sI111
(dp448
sI149
(dp449
ssI33
(dp450
I123
(dp451
sI100
(dp452
sI166
(dp453
ssI34
(dp454
I104
(dp455
sI110
(dp456
ssI35
(dp457
I105
(dp458
sI111
(dp459
ssI36
(dp460
I128
(dp461
sI136
(dp462
sI156
(dp463
sI111
(dp464
ssI37
(dp465
I129
(dp466
sI122
(dp467
sI154
(dp468
ssI38
(dp469
I112
(dp470
sI138
(dp471
sI124
(dp472
ssI39
(dp473
I136
(dp474
sI143
(dp475
sI111
(dp476
ssI40
(dp477
I138
(dp478
sI111
(dp479
ssI41
(dp480
I100
(dp481
sI191
(dp482
ssI42
(dp483
I104
(dp484
sI152
(dp485
sI165
(dp486
sI150
(dp487
sI135
(dp488
ssI43
(dp489
I136
(dp490
sI100
(dp491
ssI44
(dp492
I129
(dp493
sI162
(dp494
sI193
(dp495
sI169
(dp496
sI114
(dp497
sI186
(dp498
sI187
(dp499
ssI45
(dp500
I113
(dp501
sI141
(dp502
sI145
(dp503
ssI46
(dp504
I100
(dp505
sI125
(dp506
sI158
(dp507
ssI47
(dp508
I105
(dp509
sI121
(dp510
ssI48
(dp511
I106
(dp512
sI199
(dp513
sI114
(dp514
sI158
(dp515
sI167
(dp516
ssI49
(dp517
I132
(dp518
sI182
(dp519
sI118
(dp520
ssI50
(dp521
I105
(dp522
sI194
(dp523
sI107
(dp524
sI167
(dp525
ssI51
(dp526
I105
(dp527
sI139
(dp528
ssI52
(dp529
I115
(dp530
sI108
(dp531
ssI53
(dp532
I128
(dp533
sI193
(dp534
sI163
(dp535
sI104
(dp536
sI174
(dp537
sI177
(dp538
sI153
(dp539
ssI54
(dp540
I114
(dp541
sI191
(dp542
sI186
(dp543
sI135
(dp544
ssI55
(dp545
I152
(dp546
sI176
(dp547
sI100
(dp548
ssI56
(dp549
I113
(dp550
sI151
(dp551
ssI57
(dp552
I136
(dp553
sI153
(dp554
ssI58
(dp555
I168
(dp556
sI105
(dp557
sI100
(dp558
ssI59
(dp559
I160
(dp560
sI196
(dp561
sI105
(dp562
sI170
(dp563
sI110
(dp564
sI183
(dp565
sI169
(dp566
ssI60
(dp567
I128
(dp568
sI105
(dp569
ssI61
(dp570
I153
(dp571
sI106
(dp572
ssI62
(dp573
I101
(dp574
sI143
(dp575
ssI63
(dp576
I170
(dp577
sI179
(dp578
sI148
(dp579
sI111
(dp580
ssI64
(dp581
I136
(dp582
sI159
(dp583
ssI65
(dp584
I116
(dp585
sI150
(dp586
ssI66
(dp587
I113
(dp588
sI124
(dp589
sI181
(dp590
ssI67
(dp591
I128
(dp592
sI119
(dp593
ssI68
(dp594
I113
(dp595
sI129
(dp596
ssI69
(dp597
I104
(dp598
sI129
(dp599
ssI70
(dp600
I116
(dp601
sI111
(dp602
ssI71
(dp603
I105
(dp604
sI111
(dp605
ssI72
(dp606
I105
(dp607
sI100
(dp608
ssI73
(dp609
I102
(dp610
ssI74
(dp611
I129
(dp612
sI177
(dp613
ssI75
(dp614
I105
(dp615
sI196
(dp616
sI101
(dp617
ssI76
(dp618
I120
(dp619
sI146
(dp620
ssI77
(dp621
I176
(dp622
sI142
(dp623
ssI78
(dp624
I158
(dp625
sI151
(dp626
ssI79
(dp627
I104
(dp628
sI151
(dp629
ssI80
(dp630
I105
(dp631
sI107
(dp632
ssI81
(dp633
I104
(dp634
sI123
(dp635
ssI82
(dp636
I105
(dp637
sI117
(dp638
ssI83
(dp639
I105
(dp640
ssI84
(dp641
I105
(dp642
sI170
(dp643
ssI85
(dp644
I192
(dp645
sI105
(dp646
sI148
(dp647
sI190
(dp648
ssI86
(dp649
I141
(dp650
sI102
(dp651
ssI87
(dp652
I165
(dp653
sI159
(dp654
ssI88
(dp655
I129
(dp656
sI111
(dp657
ssI89
(dp658
I129
(dp659
sI187
(dp660
ssI90
(dp661
I100
(dp662
sI111
(dp663
ssI91
(dp664
I198
(dp665
sI117
(dp666
sI182
(dp667
ssI92
(dp668
I105
(dp669
sI118
(dp670
ssI93
(dp671
I122
(dp672
sI123
(dp673
ssI94
(dp674
I107
(dp675
sI108
(dp676
ssI95
(dp677
I105
(dp678
sI198
(dp679
sI102
(dp680
ssI96
(dp681
I176
(dp682
sI132
(dp683
ssI97
(dp684
I139
(dp685
sI175
(dp686
ssI98
(dp687
I110
(dp688
sI111
(dp689
ssI99
(dp690
I179
(dp691
sI111
(dp692
ssI100
(dp693
I0
g235
sI1
g256
sI2
g274
sI3
g290
sI4
g292
sI5
g296
sI6
g299
sI7
g312
sI9
g323
sI10
g327
sI12
g350
sI18
g382
sI27
g415
sI28
g419
sI30
g433
sI32
g444
sI33
g452
sI41
g481
sI43
g491
sI46
g505
sI55
g548
sI58
g558
sI72
g608
sI90
g662
ssI101
(dp694
I0
g236
sI16
g367
sI2
g275
sI75
g617
sI62
g574
ssI102
(dp695
I0
g237
sI2
g276
sI4
g294
sI73
g610
sI10
g328
sI13
g355
sI86
g651
sI23
g399
sI29
g423
sI95
g680
ssI103
(dp696
I0
g238
sI27
g416
ssI104
(dp697
I1
g251
sI2
g277
sI69
g598
sI8
g316
sI9
g322
sI42
g484
sI11
g339
sI34
g455
sI79
g628
sI81
g634
sI53
g536
sI28
g418
ssI105
(dp698
I0
g239
sI2
g278
sI6
g300
sI12
g348
sI17
g371
sI19
g384
sI22
g393
sI25
g408
sI31
g436
sI35
g458
sI47
g509
sI50
g522
sI51
g527
sI58
g557
sI59
g562
sI60
g569
sI71
g604
sI72
g607
sI75
g615
sI80
g631
sI82
g637
sI83
g640
sI84
g642
sI85
g646
sI92
g669
sI95
g678
ssI106
(dp699
I48
g512
sI3
g289
sI61
g572
ssI107
(dp700
I2
g279
sI6
g301
sI8
g317
sI94
g675
sI13
g354
sI14
g357
sI80
g632
sI50
g524
sI21
g390
sI30
g432
ssI108
(dp701
I0
g240
sI2
g280
sI11
g342
sI52
g531
sI94
g676
ssI109
(dp702
I0
g241
sI8
g318
sI25
g410
ssI110
(dp703
I1
g252
sI2
g281
sI98
g688
sI34
g456
sI14
g360
sI15
g365
sI19
g385
sI23
g398
sI26
g413
sI59
g564
ssI111
(dp704
I0
g242
sI32
g448
sI98
g689
sI35
g459
sI36
g464
sI70
g602
sI6
g304
sI39
g476
sI40
g479
sI71
g605
sI16
g368
sI99
g692
sI20
g388
sI21
g391
sI88
g657
sI90
g663
sI63
g580
ssI112
(dp705
I0
g243
sI18
g380
sI11
g343
sI38
g470
ssI113
(dp706
I2
g282
sI66
g588
sI11
g344
sI45
g501
sI15
g363
sI17
g373
sI56
g550
sI68
g595
ssI114
(dp707
I48
g514
sI2
g283
sI44
g497
sI54
g541
sI6
g305
ssI115
(dp708
I2
g284
sI52
g530
sI15
g364
ssI116
(dp709
I1
g254
sI2
g285
sI70
g601
sI22
g395
sI65
g585
ssI117
(dp710
I0
g244
sI24
g404
sI10
g331
sI91
g666
sI82
g638
ssI118
(dp711
I92
g670
sI17
g375
sI12
g351
sI49
g520
ssI119
(dp712
I10
g332
sI67
g593
sI6
g306
sI31
g440
ssI120
(dp713
I1
g255
sI76
g619
sI17
g376
ssI121
(dp714
I0
g245
sI2
g286
sI47
g510
ssI122
(dp715
I0
g246
sI17
g377
sI37
g467
sI24
g402
sI93
g672
ssI123
(dp716
I33
g451
sI10
g334
sI11
g346
sI93
g673
sI81
g635
sI29
g428
ssI124
(dp717
I0
g247
sI2
g287
sI66
g589
sI38
g472
ssI125
(dp718
I0
g248
sI46
g506
ssI126
(dp719
I24
g405
sI6
g308
ssI127
(dp720
I6
g309
ssI128
(dp721
I0
g214
sI67
g592
sI36
g461
sI53
g533
sI25
g407
sI60
g568
ssI129
(dp722
I0
g215
sI68
g596
sI69
g599
sI74
g612
sI44
g493
sI13
g353
sI88
g656
sI89
g659
sI37
g466
ssI130
(dp723
I0
g216
sI10
g326
ssI131
(dp724
I8
g314
sI2
g258
ssI132
(dp725
I96
g683
sI1
g250
sI12
g349
sI49
g518
ssI133
(dp726
I25
g411
sI14
g359
ssI134
(dp727
I8
g315
sI29
g424
ssI135
(dp728
I2
g259
sI42
g488
sI10
g329
sI54
g544
ssI136
(dp729
I64
g582
sI36
g462
sI39
g474
sI43
g490
sI57
g553
sI29
g426
ssI137
(dp730
I2
g260
sI11
g340
ssI138
(dp731
I40
g478
sI38
g471
sI22
g394
ssI139
(dp732
I0
g217
sI51
g528
sI11
g341
sI97
g685
ssI140
(dp733
I11
g345
sI6
g302
ssI141
(dp734
I2
g261
sI86
g650
sI45
g502
sI14
g361
ssI142
(dp735
I17
g372
sI2
g262
sI77
g623
ssI143
(dp736
I2
g263
sI62
g575
sI39
g475
ssI144
(dp737
I0
g218
sI11
g336
ssI145
(dp738
I20
g387
sI45
g503
ssI146
(dp739
I2
g264
sI76
g620
sI31
g439
ssI147
(dp740
I0
g219
sI2
g265
ssI148
(dp741
I0
g220
sI2
g266
sI85
g647
sI63
g579
ssI149
(dp742
I8
g319
sI32
g449
ssI150
(dp743
I65
g586
sI2
g267
sI42
g487
ssI151
(dp744
I0
g221
sI56
g551
sI78
g626
sI30
g434
sI79
g629
ssI152
(dp745
I1
g253
sI42
g485
sI55
g546
ssI153
(dp746
I57
g554
sI53
g539
sI6
g307
sI61
g571
ssI154
(dp747
I2
g268
sI37
g468
ssI155
(dp748
I0
g222
ssI156
(dp749
I0
g223
sI36
g463
ssI157
(dp750
I4
g293
sI29
g429
ssI158
(dp751
I48
g515
sI78
g625
sI46
g507
ssI159
(dp752
I0
g224
sI64
g583
sI14
g358
sI87
g654
ssI160
(dp753
I10
g325
sI59
g560
ssI161
(dp754
I0
g225
sI7
g311
ssI162
(dp755
I0
g226
sI44
g494
ssI163
(dp756
I11
g337
sI53
g535
ssI164
(dp757
I10
g333
sI29
g422
ssI165
(dp758
I42
g486
sI29
g430
sI87
g653
ssI166
(dp759
I32
g445
sI33
g453
ssI167
(dp760
I48
g516
sI50
g525
ssI168
(dp761
I2
g269
sI58
g556
ssI169
(dp762
I59
g566
sI44
g496
ssI170
(dp763
I59
g563
sI84
g643
sI63
g577
ssI171
(dp764
I32
g446
sI25
g409
ssI172
(dp765
I0
g227
ssI173
(dp766
I32
g447
sI6
g303
ssI174
(dp767
I2
g270
sI53
g537
ssI175
(dp768
I97
g686
sI10
g330
sI31
g438
ssI176
(dp769
I96
g682
sI2
g271
sI77
g622
sI55
g547
ssI177
(dp770
I74
g613
sI53
g538
ssI178
(dp771
I18
g381
sI31
g437
ssI179
(dp772
I2
g272
sI99
g691
sI63
g578
ssI180
(dp773
I24
g403
sI17
g374
ssI181
(dp774
I0
g228
sI66
g590
ssI182
(dp775
I0
g229
sI49
g519
sI91
g667
ssI183
(dp776
I59
g565
sI29
g427
ssI184
(dp777
I24
g401
sI31
g441
ssI185
(dp778
I0
g230
sI31
g442
ssI186
(dp779
I44
g498
sI54
g543
ssI187
(dp780
I89
g660
sI44
g499
sI23
g397
ssI188
(dp781
I0
g231
sI17
g378
ssI189
(dp782
I0
g232
sI2
g273
ssI190
(dp783
I8
g320
sI85
g648
ssI191
(dp784
I41
g482
sI54
g542
ssI192
(dp785
I85
g645
sI6
g298
ssI193
(dp786
I44
g495
sI53
g534
ssI194
(dp787
I0
g233
sI50
g523
ssI195
(dp788
I0
g234
sI17
g370
ssI196
(dp789
I75
g616
sI59
g561
ssI197
(dp790
I11
g338
sI28
g420
ssI198
(dp791
I91
g665
sI95
g679
ssI199
(dp792
I48
g513
sI29
g425
sssS'graph'
p793
(dp794
sS'adjlist_dict_factory'
p795
g209
sS'adj'
p796
g212
sb.