ccopy_reg
_reconstructor
p0
(cnetworkx.classes.graph
Graph
p1
c__builtin__
object
p2
Ntp3
Rp4
(dp5
S'node'
p6
(dp7
I0
(dp8
sI1
(dp9
sI2
(dp10
sI3
(dp11
sI4
(dp12
sI5
(dp13
sI6
(dp14
sI7
(dp15
sI8
(dp16
sI9
(dp17
sI10
(dp18
sI11
(dp19
sI12
(dp20
sI13
(dp21
sI14
(dp22
sI15
(dp23
sI16
(dp24
sI17
(dp25
sI18
(dp26
sI19
(dp27
sI20
(dp28
sI21
(dp29
sI22
(dp30
sI23
(dp31
sI24
(dp32
sI25
(dp33
sI26
(dp34
sI27
(dp35
sI28
(dp36
sI29
(dp37
sI30
(dp38
sI31
(dp39
sI32
(dp40
sI33
(dp41
sI34
(dp42
sI35
(dp43
sI36
(dp44
sI37
(dp45
sI38
(dp46
sI39
(dp47
sI40
(dp48
sI41
(dp49
sI42
(dp50
sI43
(dp51
sI44
(dp52
sI45
(dp53
sI46
(dp54
sI47
(dp55
sI48
(dp56
sI49
(dp57
sI50
(dp58
sI51
(dp59
sI52
(dp60
sI53
(dp61
sI54
(dp62
sI55
(dp63
sI56
(dp64
sI57
(dp65
sI58
(dp66
sI59
(dp67
sI60
(dp68
sI61
(dp69
sI62
(dp70
sI63
(dp71
sI64
(dp72
sI65
(dp73
sI66
(dp74
sI67
(dp75
sI68
(dp76
sI69
(dp77
sI70
(dp78
sI71
(dp79
sI72
(dp80
sI73
(dp81
sI74
(dp82
sI75
(dp83
sI76
(dp84
sI77
(dp85
sI78
(dp86
sI79
(dp87
sI80
(dp88
sI81
(dp89
sI82
(dp90
sI83
(dp91
sI84
(dp92
sI85
(dp93
sI86
(dp94
sI87
(dp95
sI88
(dp96
sI89
(dp97
sI90
(dp98
sI91
(dp99
sI92
(dp100
sI93
(dp101
sI94
(dp102
sI95
(dp103
sI96
(dp104
sI97
(dp105
sI98
(dp106
sI99
(dp107
sI100
(dp108
sI101
(dp109
sI102
(dp110
sI103
(dp111
sI104
(dp112
sI105
(dp113
sI106
(dp114
sI107
(dp115
sI108
(dp116
sI109
(dp117
sI110
(dp118
sI111
(dp119
sI112
(dp120
sI113
(dp121
sI114
(dp122
sI115
(dp123
sI116
(dp124
sI117
(dp125
sI118
(dp126
sI119
(dp127
sI120
(dp128
sI121
(dp129
sI122
(dp130
sI123
(dp131
sI124
(dp132
sI125
(dp133
sI126
(dp134
sI127
(dp135
sI128
(dp136
sI129
(dp137
sI130
(dp138
sI131
(dp139
sI132
(dp140
sI133
(dp141
sI134
(dp142
sI135
(dp143
sI136
(dp144
sI137
(dp145
sI138
(dp146
sI139
(dp147
sI140
(dp148
sI141
(dp149
sI142
(dp150
sI143
(dp151
sI144
(dp152
sI145
(dp153
sI146
(dp154
sI147
(dp155
sI148
(dp156
sI149
(dp157
sI150
(dp158
sI151
(dp159
sI152
(dp160
sI153
(dp161
sI154
(dp162
sI155
(dp163
sI156
(dp164
sI157
(dp165
sI158
(dp166
sI159
(dp167
sI160
(dp168
sI161
(dp169
sI162
(dp170
sI163
(dp171
sI164
(dp172
sI165
(dp173
sI166
(dp174
sI167
(dp175
sI168
(dp176
sI169
(dp177
sI170
(dp178
sI171
(dp179
sI172
(dp180
sI173
(dp181
sI174
(dp182
sI175
(dp183
sI176
(dp184
sI177
(dp185
sI178
(dp186
sI179
(dp187
sI180
(dp188
sI181
(dp189
sI182
(dp190
sI183
(dp191
sI184
(dp192
sI185
(dp193
sI186
(dp194
sI187
(dp195
sI188
(dp196
sI189
(dp197
sI190
(dp198
sI191
(dp199
sI192
(dp200
sI193
(dp201
sI194
(dp202
sI195
(dp203
sI196
(dp204
sI197
(dp205
sI198
(dp206
sI199
(dp207
ssS'node_dict_factory'
p208
c__builtin__
dict
p209
sS'edge_attr_dict_factory'
p210
g209
sS'edge'
p211
(dp212
I0
(dp213
I198
(dp214
sI163
(dp215
sI100
(dp216
sI101
(dp217
sI102
(dp218
sI105
(dp219
sI107
(dp220
sI147
(dp221
sI137
(dp222
sI155
(dp223
sI124
(dp224
sI125
(dp225
ssI1
(dp226
I163
(dp227
sI100
(dp228
sI101
(dp229
sI195
(dp230
sI103
(dp231
sI104
(dp232
sI106
(dp233
sI107
(dp234
sI108
(dp235
sI109
(dp236
sI115
(dp237
sI118
(dp238
sI120
(dp239
sI179
(dp240
ssI2
(dp241
I132
(dp242
sI134
(dp243
sI139
(dp244
sI140
(dp245
sI145
(dp246
sI150
(dp247
sI161
(dp248
sI165
(dp249
sI174
(dp250
sI181
(dp251
sI193
(dp252
sI199
(dp253
sI100
(dp254
sI101
(dp255
sI102
(dp256
sI103
(dp257
sI104
(dp258
sI105
(dp259
sI111
(dp260
sI112
(dp261
sI114
(dp262
sI127
(dp263
ssI3
(dp264
I121
(dp265
sI138
(dp266
sI188
(dp267
sI100
(dp268
sI101
(dp269
ssI4
(dp270
I100
(dp271
sI102
(dp272
sI167
(dp273
sI106
(dp274
sI109
(dp275
sI110
(dp276
ssI5
(dp277
I108
(dp278
sI114
(dp279
sI100
(dp280
sI101
(dp281
sI110
(dp282
ssI6
(dp283
I100
(dp284
sI101
(dp285
sI116
(dp286
sI117
(dp287
sI122
(dp288
sI123
(dp289
ssI7
(dp290
I130
(dp291
sI100
(dp292
sI136
(dp293
sI105
(dp294
sI152
(dp295
sI117
(dp296
sI119
(dp297
sI120
(dp298
sI126
(dp299
sI159
(dp300
ssI8
(dp301
I169
(dp302
sI146
(dp303
sI171
(dp304
sI124
(dp305
sI103
(dp306
ssI9
(dp307
I131
(dp308
sI100
(dp309
sI101
(dp310
sI135
(dp311
sI175
(dp312
sI176
(dp313
sI179
(dp314
sI116
(dp315
sI196
(dp316
sI184
(dp317
sI153
(dp318
sI154
(dp319
sI190
(dp320
sI191
(dp321
ssI10
(dp322
I100
(dp323
sI101
(dp324
sI111
(dp325
ssI11
(dp326
I195
(dp327
sI132
(dp328
sI103
(dp329
sI107
(dp330
sI143
(dp331
sI113
(dp332
sI146
(dp333
sI151
(dp334
sI175
(dp335
sI157
(dp336
sI126
(dp337
ssI12
(dp338
I128
(dp339
sI129
(dp340
sI102
(dp341
sI103
(dp342
sI112
(dp343
sI147
(dp344
sI184
(dp345
sI122
(dp346
ssI13
(dp347
I104
(dp348
sI128
(dp349
sI102
(dp350
ssI14
(dp351
I137
(dp352
sI121
(dp353
sI101
(dp354
sI142
(dp355
sI103
(dp356
ssI15
(dp357
I164
(dp358
sI100
(dp359
sI133
(dp360
sI170
(dp361
sI140
(dp362
sI177
(dp363
sI148
(dp364
sI182
(dp365
sI153
(dp366
sI155
(dp367
sI125
(dp368
sI101
(dp369
ssI16
(dp370
I131
(dp371
sI104
(dp372
sI139
(dp373
sI110
(dp374
sI118
(dp375
sI123
(dp376
sI156
(dp377
sI159
(dp378
ssI17
(dp379
I100
(dp380
sI102
(dp381
sI148
(dp382
sI119
(dp383
sI152
(dp384
sI156
(dp385
sI158
(dp386
ssI18
(dp387
I168
(dp388
sI105
(dp389
sI107
(dp390
ssI19
(dp391
I129
(dp392
sI108
(dp393
sI118
(dp394
ssI20
(dp395
I106
(dp396
sI100
(dp397
ssI21
(dp398
I120
(dp399
sI176
(dp400
sI198
(dp401
sI103
(dp402
ssI22
(dp403
I127
(dp404
sI102
(dp405
sI119
(dp406
ssI23
(dp407
I100
(dp408
sI117
(dp409
ssI24
(dp410
I166
(dp411
sI138
(dp412
sI141
(dp413
sI115
(dp414
sI116
(dp415
sI154
(dp416
sI157
(dp417
ssI25
(dp418
I197
(dp419
sI142
(dp420
sI117
(dp421
sI134
(dp422
sI103
(dp423
ssI26
(dp424
I168
(dp425
sI130
(dp426
sI124
(dp427
sI101
(dp428
sI135
(dp429
ssI27
(dp430
I100
(dp431
sI102
(dp432
ssI28
(dp433
I124
(dp434
sI100
(dp435
sI133
(dp436
ssI29
(dp437
I164
(dp438
sI102
(dp439
sI136
(dp440
sI141
(dp441
sI149
(dp442
sI119
(dp443
ssI30
(dp444
I104
(dp445
sI182
(dp446
sI118
(dp447
ssI31
(dp448
I121
(dp449
sI162
(dp450
sI149
(dp451
sI102
(dp452
ssI32
(dp453
I100
(dp454
sI104
(dp455
sI169
(dp456
sI173
(dp457
sI143
(dp458
sI186
(dp459
ssI33
(dp460
I160
(dp461
sI100
(dp462
sI197
(dp463
sI108
(dp464
sI180
(dp465
sI185
(dp466
ssI34
(dp467
I122
(dp468
sI100
(dp469
sI199
(dp470
ssI35
(dp471
I114
(dp472
sI166
(dp473
sI102
(dp474
ssI36
(dp475
I104
(dp476
sI145
(dp477
sI130
(dp478
sI173
(dp479
ssI37
(dp480
I160
(dp481
sI100
(dp482
ssI38
(dp483
I144
(dp484
sI107
(dp485
sI103
(dp486
ssI39
(dp487
I105
(dp488
sI101
(dp489
sI191
(dp490
ssI40
(dp491
I192
(dp492
sI122
(dp493
sI187
(dp494
sI102
(dp495
sI151
(dp496
ssI41
(dp497
I100
(dp498
sI101
(dp499
ssI42
(dp500
I193
(dp501
sI107
(dp502
sI125
(dp503
sI150
(dp504
ssI43
(dp505
I123
(dp506
sI144
(dp507
sI107
(dp508
sI183
(dp509
ssI44
(dp510
I122
(dp511
sI101
(dp512
sI181
(dp513
ssI45
(dp514
I101
(dp515
sI103
(dp516
ssI46
(dp517
I100
(dp518
sI134
(dp519
ssI47
(dp520
I187
(dp521
sI109
(dp522
sI125
(dp523
ssI48
(dp524
I178
(dp525
sI100
(dp526
sI102
(dp527
sI183
(dp528
ssI49
(dp529
I172
(dp530
sI118
(dp531
sI143
(dp532
ssI50
(dp533
I122
(dp534
sI102
(dp535
ssI51
(dp536
I100
(dp537
sI165
(dp538
sI118
(dp539
ssI52
(dp540
I189
(dp541
sI117
(dp542
sI103
(dp543
ssI53
(dp544
I114
(dp545
sI125
(dp546
ssI54
(dp547
I149
(dp548
sI158
(dp549
sI103
(dp550
ssI55
(dp551
I177
(dp552
sI196
(dp553
sI140
(dp554
sI101
(dp555
ssI56
(dp556
I118
(dp557
sI102
(dp558
ssI57
(dp559
I105
(dp560
sI162
(dp561
sI155
(dp562
sI167
(dp563
ssI58
(dp564
I121
(dp565
sI100
(dp566
ssI59
(dp567
I144
(dp568
sI101
(dp569
ssI60
(dp570
I105
(dp571
sI100
(dp572
ssI61
(dp573
I102
(dp574
sI111
(dp575
ssI62
(dp576
I122
(dp577
sI101
(dp578
ssI63
(dp579
I189
(dp580
sI122
(dp581
sI180
(dp582
sI178
(dp583
sI103
(dp584
ssI64
(dp585
I121
(dp586
sI110
(dp587
ssI65
(dp588
I105
(dp589
sI155
(dp590
ssI66
(dp591
I149
(dp592
sI102
(dp593
ssI67
(dp594
I122
(dp595
sI171
(dp596
sI102
(dp597
ssI68
(dp598
I158
(dp599
sI103
(dp600
ssI69
(dp601
I104
(dp602
sI170
(dp603
sI100
(dp604
sI186
(dp605
sI174
(dp606
ssI70
(dp607
I137
(dp608
sI122
(dp609
ssI71
(dp610
I107
(dp611
sI172
(dp612
sI127
(dp613
ssI72
(dp614
I102
(dp615
sI167
(dp616
ssI73
(dp617
I148
(dp618
sI103
(dp619
ssI74
(dp620
I100
(dp621
sI118
(dp622
ssI75
(dp623
I185
(dp624
sI131
(dp625
sI190
(dp626
sI126
(dp627
ssI76
(dp628
I146
(dp629
sI157
(dp630
ssI77
(dp631
I106
(dp632
sI101
(dp633
ssI78
(dp634
I139
(dp635
sI103
(dp636
ssI79
(dp637
I107
(dp638
sI139
(dp639
ssI80
(dp640
I121
(dp641
sI194
(dp642
sI132
(dp643
ssI81
(dp644
I100
(dp645
sI102
(dp646
ssI82
(dp647
I107
(dp648
sI148
(dp649
ssI83
(dp650
I194
(dp651
sI106
(dp652
sI157
(dp653
ssI84
(dp654
I100
(dp655
sI103
(dp656
ssI85
(dp657
I122
(dp658
sI102
(dp659
ssI86
(dp660
I192
(dp661
sI170
(dp662
sI157
(dp663
ssI87
(dp664
I143
(dp665
sI127
(dp666
ssI88
(dp667
I140
(dp668
sI108
(dp669
ssI89
(dp670
I115
(dp671
sI108
(dp672
ssI90
(dp673
I163
(dp674
sI100
(dp675
ssI91
(dp676
I146
(dp677
sI100
(dp678
ssI92
(dp679
I170
(dp680
ssI93
(dp681
I122
(dp682
sI126
(dp683
ssI94
(dp684
I131
(dp685
sI118
(dp686
ssI95
(dp687
I100
(dp688
sI182
(dp689
ssI96
(dp690
I162
(dp691
sI100
(dp692
ssI97
(dp693
I105
(dp694
sI132
(dp695
ssI98
(dp696
I100
(dp697
sI101
(dp698
ssI99
(dp699
I116
(dp700
sI109
(dp701
ssI100
(dp702
I0
g216
sI1
g228
sI2
g254
sI3
g268
sI4
g271
sI5
g280
sI6
g284
sI7
g292
sI9
g309
sI10
g323
sI15
g359
sI17
g380
sI20
g397
sI23
g408
sI27
g431
sI28
g435
sI32
g454
sI33
g462
sI34
g469
sI37
g482
sI41
g498
sI46
g518
sI48
g526
sI51
g537
sI58
g566
sI60
g572
sI69
g604
sI74
g621
sI81
g645
sI84
g655
sI90
g675
sI91
g678
sI95
g688
sI96
g692
sI98
g697
ssI101
(dp703
I0
g217
sI1
g229
sI2
g255
sI3
g269
sI77
g633
sI5
g281
sI6
g285
sI39
g489
sI9
g310
sI10
g324
sI55
g555
sI44
g512
sI45
g515
sI14
g354
sI15
g369
sI98
g698
sI41
g499
sI26
g428
sI59
g569
sI62
g578
ssI102
(dp704
I0
g218
sI2
g256
sI35
g474
sI4
g272
sI81
g646
sI40
g495
sI12
g341
sI13
g350
sI61
g574
sI48
g527
sI17
g381
sI50
g535
sI67
g597
sI66
g593
sI22
g405
sI56
g558
sI72
g615
sI27
g432
sI29
g439
sI85
g659
sI31
g452
ssI103
(dp705
I84
g656
sI1
g231
sI2
g257
sI68
g600
sI38
g486
sI8
g306
sI73
g619
sI11
g329
sI12
g342
sI45
g516
sI14
g356
sI52
g543
sI21
g402
sI54
g550
sI25
g423
sI78
g636
sI63
g584
ssI104
(dp706
I32
g455
sI1
g232
sI2
g258
sI36
g476
sI69
g602
sI13
g348
sI16
g372
sI30
g445
ssI105
(dp707
I0
g219
sI65
g589
sI2
g259
sI97
g694
sI39
g488
sI7
g294
sI18
g389
sI57
g560
sI60
g571
ssI106
(dp708
I1
g233
sI83
g652
sI4
g274
sI77
g632
sI20
g396
ssI107
(dp709
I0
g220
sI1
g234
sI43
g508
sI38
g485
sI71
g611
sI42
g502
sI11
g330
sI82
g648
sI79
g638
sI18
g390
ssI108
(dp710
I1
g235
sI5
g278
sI33
g464
sI19
g393
sI88
g669
sI89
g672
ssI109
(dp711
I1
g236
sI99
g701
sI4
g275
sI47
g522
ssI110
(dp712
I16
g374
sI64
g587
sI4
g276
sI5
g282
ssI111
(dp713
I2
g260
sI10
g325
sI61
g575
ssI112
(dp714
I2
g261
sI12
g343
ssI113
(dp715
I11
g332
ssI114
(dp716
I2
g262
sI35
g472
sI5
g279
sI53
g545
ssI115
(dp717
I24
g414
sI1
g237
sI89
g671
ssI116
(dp718
I24
g415
sI9
g315
sI99
g700
sI6
g286
ssI117
(dp719
I25
g421
sI23
g409
sI52
g542
sI6
g287
sI7
g296
ssI118
(dp720
I1
g238
sI51
g539
sI74
g622
sI16
g375
sI49
g531
sI19
g394
sI94
g686
sI56
g557
sI30
g447
ssI119
(dp721
I17
g383
sI29
g443
sI22
g406
sI7
g297
ssI120
(dp722
I1
g239
sI21
g399
sI7
g298
ssI121
(dp723
I64
g586
sI3
g265
sI14
g353
sI80
g641
sI58
g565
sI31
g449
ssI122
(dp724
I34
g468
sI67
g595
sI70
g609
sI6
g288
sI40
g493
sI12
g346
sI44
g511
sI50
g534
sI85
g658
sI93
g682
sI62
g577
sI63
g581
ssI123
(dp725
I16
g376
sI43
g506
sI6
g289
ssI124
(dp726
I0
g224
sI8
g305
sI26
g427
sI28
g434
ssI125
(dp727
I0
g225
sI42
g503
sI47
g523
sI53
g546
sI15
g368
ssI126
(dp728
I75
g627
sI11
g337
sI93
g683
sI7
g299
ssI127
(dp729
I2
g263
sI87
g666
sI22
g404
sI71
g613
ssI128
(dp730
I12
g339
sI13
g349
ssI129
(dp731
I19
g392
sI12
g340
ssI130
(dp732
I26
g426
sI36
g478
sI7
g291
ssI131
(dp733
I16
g371
sI9
g308
sI75
g625
sI94
g685
ssI132
(dp734
I80
g643
sI97
g695
sI2
g242
sI11
g328
ssI133
(dp735
I28
g436
sI15
g360
ssI134
(dp736
I25
g422
sI2
g243
sI46
g519
ssI135
(dp737
I9
g311
sI26
g429
ssI136
(dp738
I29
g440
sI7
g293
ssI137
(dp739
I0
g222
sI70
g608
sI14
g352
ssI138
(dp740
I24
g412
sI3
g266
ssI139
(dp741
I16
g373
sI2
g244
sI78
g635
sI79
g639
ssI140
(dp742
I88
g668
sI2
g245
sI55
g554
sI15
g362
ssI141
(dp743
I24
g413
sI29
g441
ssI142
(dp744
I25
g420
sI14
g355
ssI143
(dp745
I32
g458
sI49
g532
sI11
g331
sI87
g665
ssI144
(dp746
I59
g568
sI43
g507
sI38
g484
ssI145
(dp747
I2
g246
sI36
g477
ssI146
(dp748
I8
g303
sI91
g677
sI11
g333
sI76
g629
ssI147
(dp749
I0
g221
sI12
g344
ssI148
(dp750
I17
g382
sI82
g649
sI73
g618
sI15
g364
ssI149
(dp751
I66
g592
sI29
g442
sI54
g548
sI31
g451
ssI150
(dp752
I2
g247
sI42
g504
ssI151
(dp753
I40
g496
sI11
g334
ssI152
(dp754
I17
g384
sI7
g295
ssI153
(dp755
I9
g318
sI15
g366
ssI154
(dp756
I24
g416
sI9
g319
ssI155
(dp757
I0
g223
sI57
g562
sI65
g590
sI15
g367
ssI156
(dp758
I16
g377
sI17
g385
ssI157
(dp759
I24
g417
sI83
g653
sI11
g336
sI76
g630
sI86
g663
ssI158
(dp760
I17
g386
sI68
g599
sI54
g549
ssI159
(dp761
I16
g378
sI7
g300
ssI160
(dp762
I33
g461
sI37
g481
ssI161
(dp763
I2
g248
ssI162
(dp764
I96
g691
sI57
g561
sI31
g450
ssI163
(dp765
I0
g215
sI1
g227
sI90
g674
ssI164
(dp766
I29
g438
sI15
g358
ssI165
(dp767
I2
g249
sI51
g538
ssI166
(dp768
I24
g411
sI35
g473
ssI167
(dp769
I72
g616
sI57
g563
sI4
g273
ssI168
(dp770
I18
g388
sI26
g425
ssI169
(dp771
I8
g302
sI32
g456
ssI170
(dp772
I92
g680
sI69
g603
sI86
g662
sI15
g361
ssI171
(dp773
I8
g304
sI67
g596
ssI172
(dp774
I49
g530
sI71
g612
ssI173
(dp775
I32
g457
sI36
g479
ssI174
(dp776
I2
g250
sI69
g606
ssI175
(dp777
I9
g312
sI11
g335
ssI176
(dp778
I9
g313
sI21
g400
ssI177
(dp779
I55
g552
sI15
g363
ssI178
(dp780
I48
g525
sI63
g583
ssI179
(dp781
I1
g240
sI9
g314
ssI180
(dp782
I33
g465
sI63
g582
ssI181
(dp783
I2
g251
sI44
g513
ssI182
(dp784
I95
g689
sI30
g446
sI15
g365
ssI183
(dp785
I48
g528
sI43
g509
ssI184
(dp786
I9
g317
sI12
g345
ssI185
(dp787
I33
g466
sI75
g624
ssI186
(dp788
I32
g459
sI69
g605
ssI187
(dp789
I40
g494
sI47
g521
ssI188
(dp790
I3
g267
ssI189
(dp791
I52
g541
sI63
g580
ssI190
(dp792
I9
g320
sI75
g626
ssI191
(dp793
I9
g321
sI39
g490
ssI192
(dp794
I40
g492
sI86
g661
ssI193
(dp795
I2
g252
sI42
g501
ssI194
(dp796
I80
g642
sI83
g651
ssI195
(dp797
I1
g230
sI11
g327
ssI196
(dp798
I9
g316
sI55
g553
ssI197
(dp799
I25
g419
sI33
g463
ssI198
(dp800
I0
g214
sI21
g401
ssI199
(dp801
I2
g253
sI34
g470
sssS'graph'
p802
(dp803
sS'adjlist_dict_factory'
p804
g209
sS'adj'
p805
g212
sb.