ccopy_reg
_reconstructor
p0
(cnetworkx.classes.graph
Graph
p1
c__builtin__
object
p2
Ntp3
Rp4
(dp5
S'node'
p6
(dp7
I0
(dp8
sI1
(dp9
sI2
(dp10
sI3
(dp11
sI4
(dp12
sI5
(dp13
sI6
(dp14
sI7
(dp15
sI8
(dp16
sI9
(dp17
sI10
(dp18
sI11
(dp19
sI12
(dp20
sI13
(dp21
sI14
(dp22
sI15
(dp23
sI16
(dp24
sI17
(dp25
sI18
(dp26
sI19
(dp27
sI20
(dp28
sI21
(dp29
sI22
(dp30
sI23
(dp31
sI24
(dp32
sI25
(dp33
sI26
(dp34
sI27
(dp35
sI28
(dp36
sI29
(dp37
sI30
(dp38
sI31
(dp39
sI32
(dp40
sI33
(dp41
sI34
(dp42
sI35
(dp43
sI36
(dp44
sI37
(dp45
sI38
(dp46
sI39
(dp47
sI40
(dp48
sI41
(dp49
sI42
(dp50
sI43
(dp51
sI44
(dp52
sI45
(dp53
sI46
(dp54
sI47
(dp55
sI48
(dp56
sI49
(dp57
sI50
(dp58
sI51
(dp59
sI52
(dp60
sI53
(dp61
sI54
(dp62
sI55
(dp63
sI56
(dp64
sI57
(dp65
sI58
(dp66
sI59
(dp67
sI60
(dp68
sI61
(dp69
sI62
(dp70
sI63
(dp71
sI64
(dp72
sI65
(dp73
sI66
(dp74
sI67
(dp75
sI68
(dp76
sI69
(dp77
sI70
(dp78
sI71
(dp79
sI72
(dp80
sI73
(dp81
sI74
(dp82
sI75
(dp83
sI76
(dp84
sI77
(dp85
sI78
(dp86
sI79
(dp87
sI80
(dp88
sI81
(dp89
sI82
(dp90
sI83
(dp91
sI84
(dp92
sI85
(dp93
sI86
(dp94
sI87
(dp95
sI88
(dp96
sI89
(dp97
sI90
(dp98
sI91
(dp99
sI92
(dp100
sI93
(dp101
sI94
(dp102
sI95
(dp103
sI96
(dp104
sI97
(dp105
sI98
(dp106
sI99
(dp107
sI100
(dp108
sI101
(dp109
sI102
(dp110
sI103
(dp111
sI104
(dp112
sI105
(dp113
sI106
(dp114
sI107
(dp115
sI108
(dp116
sI109
(dp117
sI110
(dp118
sI111
(dp119
sI112
(dp120
sI113
(dp121
sI114
(dp122
sI115
(dp123
sI116
(dp124
sI117
(dp125
sI118
(dp126
sI119
(dp127
sI120
(dp128
sI121
(dp129
sI122
(dp130
sI123
(dp131
sI124
(dp132
sI125
(dp133
sI126
(dp134
sI127
(dp135
sI128
(dp136
sI129
(dp137
sI130
(dp138
sI131
(dp139
sI132
(dp140
sI133
(dp141
sI134
(dp142
sI135
(dp143
sI136
(dp144
sI137
(dp145
sI138
(dp146
sI139
(dp147
sI140
(dp148
sI141
(dp149
sI142
(dp150
sI143
(dp151
sI144
(dp152
sI145
(dp153
sI146
(dp154
sI147
(dp155
sI148
(dp156
sI149
(dp157
sI150
(dp158
sI151
(dp159
sI152
(dp160
sI153
(dp161
sI154
(dp162
sI155
(dp163
sI156
(dp164
sI157
(dp165
sI158
(dp166
sI159
(dp167
sI160
(dp168
sI161
(dp169
sI162
(dp170
sI163
(dp171
sI164
(dp172
sI165
(dp173
sI166
(dp174
sI167
(dp175
sI168
(dp176
sI169
(dp177
sI170
(dp178
sI171
(dp179
sI172
(dp180
sI173
(dp181
sI174
(dp182
sI175
(dp183
sI176
(dp184
sI177
(dp185
sI178
(dp186
sI179
(dp187
sI180
(dp188
sI181
(dp189
sI182
(dp190
sI183
(dp191
sI184
(dp192
sI185
(dp193
sI186
(dp194
sI187
(dp195
sI188
(dp196
sI189
(dp197
sI190
(dp198
sI191
(dp199
sI192
(dp200
sI193
(dp201
sI194
(dp202
sI195
(dp203
sI196
(dp204
sI197
(dp205
sI198
(dp206
sI199
(dp207
ssS'node_dict_factory'
p208
c__builtin__
dict
p209
sS'edge_attr_dict_factory'
p210
g209
sS'edge'
p211
(dp212
I0
(dp213
I135
(dp214
sI139
(dp215
sI143
(dp216
sI145
(dp217
sI147
(dp218
sI148
(dp219
sI149
(dp220
sI151
(dp221
sI153
(dp222
sI154
(dp223
sI162
(dp224
sI172
(dp225
sI174
(dp226
sI182
(dp227
sI189
(dp228
sI100
(dp229
sI101
(dp230
sI102
(dp231
sI104
(dp232
sI106
(dp233
sI111
(dp234
sI113
(dp235
sI115
(dp236
sI116
(dp237
sI119
(dp238
sI120
(dp239
ssI1
(dp240
I136
(dp241
sI100
(dp242
sI101
(dp243
sI103
(dp244
ssI2
(dp245
I160
(dp246
sI176
(dp247
sI100
(dp248
sI103
(dp249
sI107
(dp250
sI110
(dp251
sI112
(dp252
sI156
(dp253
sI158
(dp254
ssI3
(dp255
I132
(dp256
sI101
(dp257
sI102
(dp258
sI171
(dp259
sI145
(dp260
sI180
(dp261
ssI4
(dp262
I192
(dp263
sI198
(dp264
sI130
(dp265
sI155
(dp266
sI100
(dp267
sI101
(dp268
sI134
(dp269
sI104
(dp270
sI105
(dp271
sI107
(dp272
sI108
(dp273
sI109
(dp274
sI111
(dp275
sI173
(dp276
sI163
(dp277
sI123
(dp278
sI124
(dp279
sI125
(dp280
sI190
(dp281
ssI5
(dp282
I128
(dp283
sI129
(dp284
sI132
(dp285
sI100
(dp286
sI197
(dp287
sI135
(dp288
sI104
(dp289
sI105
(dp290
sI162
(dp291
sI109
(dp292
sI144
(dp293
sI114
(dp294
sI178
(dp295
sI149
(dp296
sI119
(dp297
sI137
(dp298
sI121
(dp299
sI123
(dp300
sI124
(dp301
sI169
(dp302
sI191
(dp303
ssI6
(dp304
I160
(dp305
sI150
(dp306
sI102
(dp307
sI104
(dp308
sI172
(dp309
sI106
(dp310
sI108
(dp311
sI115
(dp312
sI118
(dp313
sI184
(dp314
sI122
(dp315
sI170
(dp316
sI126
(dp317
ssI7
(dp318
I198
(dp319
sI100
(dp320
sI165
(dp321
sI102
(dp322
sI199
(dp323
sI168
(dp324
sI140
(dp325
sI110
(dp326
sI118
(dp327
sI164
(dp328
sI188
(dp329
sI159
(dp330
ssI8
(dp331
I185
(dp332
sI187
(dp333
sI100
(dp334
sI101
(dp335
sI183
(dp336
ssI9
(dp337
I104
(dp338
sI181
(dp339
sI101
(dp340
sI133
(dp341
ssI10
(dp342
I104
(dp343
sI102
(dp344
ssI11
(dp345
I131
(dp346
sI196
(dp347
sI184
(dp348
sI105
(dp349
sI107
(dp350
sI146
(dp351
sI174
(dp352
sI113
(dp353
sI114
(dp354
sI195
(dp355
sI180
(dp356
sI117
(dp357
sI152
(dp358
sI159
(dp359
sI125
(dp360
sI127
(dp361
ssI12
(dp362
I129
(dp363
sI100
(dp364
sI111
(dp365
sI112
(dp366
sI147
(dp367
sI182
(dp368
ssI13
(dp369
I185
(dp370
sI116
(dp371
sI109
(dp372
sI102
(dp373
ssI14
(dp374
I104
(dp375
sI107
(dp376
ssI15
(dp377
I104
(dp378
sI120
(dp379
sI106
(dp380
ssI16
(dp381
I104
(dp382
sI142
(dp383
sI143
(dp384
sI179
(dp385
sI186
(dp386
sI111
(dp387
sI191
(dp388
ssI17
(dp389
I197
(dp390
sI108
(dp391
sI110
(dp392
sI148
(dp393
sI150
(dp394
sI152
(dp395
ssI18
(dp396
I161
(dp397
sI131
(dp398
sI101
(dp399
sI137
(dp400
sI138
(dp401
sI108
(dp402
sI126
(dp403
ssI19
(dp404
I130
(dp405
sI166
(dp406
sI167
(dp407
sI140
(dp408
sI111
(dp409
sI112
(dp410
sI121
(dp411
ssI20
(dp412
I104
(dp413
sI110
(dp414
ssI21
(dp415
I112
(dp416
sI105
(dp417
sI164
(dp418
sI161
(dp419
ssI22
(dp420
I104
(dp421
sI122
(dp422
sI195
(dp423
sI110
(dp424
ssI23
(dp425
I104
(dp426
sI101
(dp427
ssI24
(dp428
I136
(dp429
sI138
(dp430
sI123
(dp431
sI170
(dp432
sI102
(dp433
ssI25
(dp434
I104
(dp435
sI107
(dp436
ssI26
(dp437
I165
(dp438
sI102
(dp439
sI142
(dp440
sI179
(dp441
sI116
(dp442
sI157
(dp443
ssI27
(dp444
I128
(dp445
sI193
(dp446
sI101
(dp447
sI134
(dp448
sI105
(dp449
sI171
(dp450
sI141
(dp451
sI156
(dp452
ssI28
(dp453
I112
(dp454
sI114
(dp455
ssI29
(dp456
I100
(dp457
sI111
(dp458
ssI30
(dp459
I177
(dp460
sI117
(dp461
sI189
(dp462
sI119
(dp463
ssI31
(dp464
I100
(dp465
sI101
(dp466
sI158
(dp467
sI157
(dp468
ssI32
(dp469
I113
(dp470
sI139
(dp471
sI101
(dp472
sI133
(dp473
ssI33
(dp474
I178
(dp475
sI107
(dp476
sI163
(dp477
sI103
(dp478
ssI34
(dp479
I122
(dp480
sI123
(dp481
sI186
(dp482
sI146
(dp483
sI175
(dp484
ssI35
(dp485
I104
(dp486
sI100
(dp487
ssI36
(dp488
I114
(dp489
sI135
(dp490
ssI37
(dp491
I104
(dp492
sI144
(dp493
sI133
(dp494
ssI38
(dp495
I176
(dp496
sI177
(dp497
sI114
(dp498
sI100
(dp499
ssI39
(dp500
I104
(dp501
sI117
(dp502
sI141
(dp503
ssI40
(dp504
I101
(dp505
sI133
(dp506
ssI41
(dp507
I100
(dp508
sI101
(dp509
ssI42
(dp510
I104
(dp511
sI109
(dp512
ssI43
(dp513
I113
(dp514
sI142
(dp515
ssI44
(dp516
I193
(dp517
sI106
(dp518
sI107
(dp519
ssI45
(dp520
I107
(dp521
sI100
(dp522
ssI46
(dp523
I104
(dp524
sI188
(dp525
sI110
(dp526
ssI47
(dp527
I130
(dp528
sI100
(dp529
ssI48
(dp530
I142
(dp531
sI126
(dp532
ssI49
(dp533
I104
(dp534
sI100
(dp535
ssI50
(dp536
I148
(dp537
sI126
(dp538
ssI51
(dp539
I106
(dp540
sI175
(dp541
sI196
(dp542
sI101
(dp543
sI167
(dp544
ssI52
(dp545
I192
(dp546
sI107
(dp547
sI131
(dp548
ssI53
(dp549
I120
(dp550
sI145
(dp551
sI194
(dp552
sI155
(dp553
ssI54
(dp554
I142
(dp555
sI103
(dp556
ssI55
(dp557
I105
(dp558
sI111
(dp559
ssI56
(dp560
I121
(dp561
sI140
(dp562
ssI57
(dp563
I168
(dp564
sI109
(dp565
sI102
(dp566
sI183
(dp567
ssI58
(dp568
I136
(dp569
sI106
(dp570
ssI59
(dp571
I136
(dp572
sI110
(dp573
ssI60
(dp574
I137
(dp575
sI107
(dp576
sI173
(dp577
ssI61
(dp578
I137
(dp579
sI133
(dp580
ssI62
(dp581
I101
(dp582
sI111
(dp583
ssI63
(dp584
I152
(dp585
sI100
(dp586
sI166
(dp587
ssI64
(dp588
I101
(dp589
sI102
(dp590
ssI65
(dp591
I101
(dp592
ssI66
(dp593
I136
(dp594
sI134
(dp595
ssI67
(dp596
I120
(dp597
sI123
(dp598
ssI68
(dp599
I112
(dp600
sI140
(dp601
ssI69
(dp602
I194
(dp603
sI106
(dp604
sI114
(dp605
ssI70
(dp606
I115
(dp607
sI111
(dp608
ssI71
(dp609
I130
(dp610
sI100
(dp611
ssI72
(dp612
I115
(dp613
sI140
(dp614
ssI73
(dp615
I140
(dp616
sI103
(dp617
ssI74
(dp618
I166
(dp619
sI111
(dp620
ssI75
(dp621
I104
(dp622
sI162
(dp623
sI181
(dp624
ssI76
(dp625
I102
(dp626
sI135
(dp627
ssI77
(dp628
I168
(dp629
sI159
(dp630
ssI78
(dp631
I112
(dp632
sI152
(dp633
ssI79
(dp634
I104
(dp635
sI187
(dp636
sI109
(dp637
ssI80
(dp638
I112
(dp639
sI133
(dp640
ssI81
(dp641
I120
(dp642
sI133
(dp643
ssI82
(dp644
I106
(dp645
sI130
(dp646
ssI83
(dp647
I110
(dp648
sI102
(dp649
ssI84
(dp650
I104
(dp651
sI168
(dp652
sI199
(dp653
ssI85
(dp654
I109
(dp655
sI102
(dp656
ssI86
(dp657
I150
(dp658
sI142
(dp659
ssI87
(dp660
I104
(dp661
sI184
(dp662
ssI88
(dp663
I112
(dp664
sI126
(dp665
ssI89
(dp666
I105
(dp667
sI190
(dp668
sI111
(dp669
ssI90
(dp670
I130
(dp671
sI124
(dp672
ssI91
(dp673
I117
(dp674
sI149
(dp675
ssI92
(dp676
I116
(dp677
sI109
(dp678
ssI93
(dp679
I109
(dp680
sI102
(dp681
ssI94
(dp682
I121
(dp683
sI101
(dp684
ssI95
(dp685
I171
(dp686
sI150
(dp687
ssI96
(dp688
I119
(dp689
sI103
(dp690
ssI97
(dp691
I101
(dp692
sI111
(dp693
ssI98
(dp694
I106
(dp695
sI115
(dp696
ssI99
(dp697
I168
(dp698
sI195
(dp699
ssI100
(dp700
I0
g229
sI1
g242
sI2
g248
sI35
g487
sI4
g267
sI5
g286
sI38
g499
sI7
g320
sI8
g334
sI41
g508
sI71
g611
sI12
g364
sI45
g522
sI47
g529
sI49
g535
sI63
g586
sI29
g457
sI31
g465
ssI101
(dp701
I0
g230
sI1
g243
sI3
g257
sI4
g268
sI65
g592
sI32
g472
sI8
g335
sI9
g340
sI97
g692
sI94
g684
sI64
g589
sI40
g505
sI18
g399
sI51
g543
sI41
g509
sI23
g427
sI27
g447
sI62
g582
sI31
g466
ssI102
(dp702
I0
g231
sI64
g590
sI3
g258
sI6
g307
sI7
g322
sI10
g344
sI76
g626
sI13
g373
sI83
g649
sI85
g656
sI24
g433
sI57
g566
sI26
g439
sI93
g681
ssI103
(dp703
I96
g690
sI1
g244
sI2
g249
sI33
g478
sI73
g617
sI54
g556
ssI104
(dp704
I0
g232
sI4
g270
sI5
g289
sI6
g308
sI9
g338
sI10
g343
sI14
g375
sI15
g378
sI16
g382
sI20
g413
sI22
g421
sI23
g426
sI25
g435
sI35
g486
sI37
g492
sI39
g501
sI42
g511
sI46
g524
sI49
g534
sI75
g622
sI79
g635
sI84
g651
sI87
g661
ssI105
(dp705
I4
g271
sI5
g290
sI11
g349
sI21
g417
sI55
g558
sI89
g667
sI27
g449
ssI106
(dp706
I0
g233
sI98
g695
sI69
g604
sI6
g310
sI44
g518
sI15
g380
sI82
g645
sI51
g540
sI58
g570
ssI107
(dp707
I33
g476
sI2
g250
sI4
g272
sI11
g350
sI44
g519
sI45
g521
sI14
g376
sI52
g547
sI25
g436
sI60
g576
ssI108
(dp708
I17
g391
sI18
g402
sI4
g273
sI6
g311
ssI109
(dp709
I4
g274
sI5
g292
sI42
g512
sI13
g372
sI79
g637
sI85
g655
sI57
g565
sI92
g678
sI93
g680
ssI110
(dp710
I2
g251
sI7
g326
sI46
g526
sI17
g392
sI83
g648
sI20
g414
sI22
g424
sI59
g573
ssI111
(dp711
I0
g234
sI97
g693
sI4
g275
sI70
g608
sI74
g620
sI12
g365
sI16
g387
sI19
g409
sI55
g559
sI89
g669
sI29
g458
sI62
g583
ssI112
(dp712
I2
g252
sI68
g600
sI12
g366
sI78
g632
sI80
g639
sI19
g410
sI21
g416
sI88
g664
sI28
g454
ssI113
(dp713
I0
g235
sI32
g470
sI11
g353
sI43
g514
ssI114
(dp714
I36
g489
sI5
g294
sI38
g498
sI11
g354
sI28
g455
sI69
g605
ssI115
(dp715
I0
g236
sI72
g613
sI98
g696
sI70
g607
sI6
g312
ssI116
(dp716
I0
g237
sI26
g442
sI92
g677
sI13
g371
ssI117
(dp717
I91
g674
sI11
g357
sI30
g461
sI39
g502
ssI118
(dp718
I6
g313
sI7
g327
ssI119
(dp719
I0
g238
sI96
g689
sI5
g297
sI30
g463
ssI120
(dp720
I0
g239
sI81
g642
sI67
g597
sI53
g550
sI15
g379
ssI121
(dp721
I56
g561
sI19
g411
sI5
g299
sI94
g683
ssI122
(dp722
I34
g480
sI22
g422
sI6
g315
ssI123
(dp723
I24
g431
sI34
g481
sI67
g598
sI4
g278
sI5
g300
ssI124
(dp724
I90
g672
sI4
g279
sI5
g301
ssI125
(dp725
I11
g360
sI4
g280
ssI126
(dp726
I48
g532
sI88
g665
sI18
g403
sI50
g538
sI6
g317
ssI127
(dp727
I11
g361
ssI128
(dp728
I27
g445
sI5
g283
ssI129
(dp729
I12
g363
sI5
g284
ssI130
(dp730
I4
g265
sI71
g610
sI47
g528
sI82
g646
sI19
g405
sI90
g671
ssI131
(dp731
I18
g398
sI11
g346
sI52
g548
ssI132
(dp732
I3
g256
sI5
g285
ssI133
(dp733
I32
g473
sI37
g494
sI40
g506
sI9
g341
sI80
g640
sI81
g643
sI61
g580
ssI134
(dp734
I66
g595
sI27
g448
sI4
g269
ssI135
(dp735
I0
g214
sI76
g627
sI36
g490
sI5
g288
ssI136
(dp736
I24
g429
sI1
g241
sI58
g569
sI59
g572
sI66
g594
ssI137
(dp737
I18
g400
sI60
g575
sI5
g298
sI61
g579
ssI138
(dp738
I24
g430
sI18
g401
ssI139
(dp739
I0
g215
sI32
g471
ssI140
(dp740
I68
g601
sI7
g325
sI72
g614
sI73
g616
sI19
g408
sI56
g562
ssI141
(dp741
I27
g451
sI39
g503
ssI142
(dp742
I48
g531
sI54
g555
sI43
g515
sI16
g383
sI86
g659
sI26
g440
ssI143
(dp743
I0
g216
sI16
g384
ssI144
(dp744
I5
g293
sI37
g493
ssI145
(dp745
I0
g217
sI3
g260
sI53
g551
ssI146
(dp746
I34
g483
sI11
g351
ssI147
(dp747
I0
g218
sI12
g367
ssI148
(dp748
I0
g219
sI17
g393
sI50
g537
ssI149
(dp749
I0
g220
sI91
g675
sI5
g296
ssI150
(dp750
I17
g394
sI86
g658
sI6
g306
sI95
g687
ssI151
(dp751
I0
g221
ssI152
(dp752
I17
g395
sI11
g358
sI78
g633
sI63
g585
ssI153
(dp753
I0
g222
ssI154
(dp754
I0
g223
ssI155
(dp755
I4
g266
sI53
g553
ssI156
(dp756
I2
g253
sI27
g452
ssI157
(dp757
I26
g443
sI31
g468
ssI158
(dp758
I2
g254
sI31
g467
ssI159
(dp759
I11
g359
sI77
g630
sI7
g330
ssI160
(dp760
I2
g246
sI6
g305
ssI161
(dp761
I18
g397
sI21
g419
ssI162
(dp762
I0
g224
sI75
g623
sI5
g291
ssI163
(dp763
I33
g477
sI4
g277
ssI164
(dp764
I21
g418
sI7
g328
ssI165
(dp765
I26
g438
sI7
g321
ssI166
(dp766
I74
g619
sI19
g406
sI63
g587
ssI167
(dp767
I51
g544
sI19
g407
ssI168
(dp768
I57
g564
sI99
g698
sI84
g652
sI77
g629
sI7
g324
ssI169
(dp769
I5
g302
ssI170
(dp770
I24
g432
sI6
g316
ssI171
(dp771
I27
g450
sI3
g259
sI95
g686
ssI172
(dp772
I0
g225
sI6
g309
ssI173
(dp773
I60
g577
sI4
g276
ssI174
(dp774
I0
g226
sI11
g352
ssI175
(dp775
I34
g484
sI51
g541
ssI176
(dp776
I2
g247
sI38
g496
ssI177
(dp777
I38
g497
sI30
g460
ssI178
(dp778
I33
g475
sI5
g295
ssI179
(dp779
I16
g385
sI26
g441
ssI180
(dp780
I11
g356
sI3
g261
ssI181
(dp781
I9
g339
sI75
g624
ssI182
(dp782
I0
g227
sI12
g368
ssI183
(dp783
I8
g336
sI57
g567
ssI184
(dp784
I11
g348
sI6
g314
sI87
g662
ssI185
(dp785
I8
g332
sI13
g370
ssI186
(dp786
I16
g386
sI34
g482
ssI187
(dp787
I8
g333
sI79
g636
ssI188
(dp788
I46
g525
sI7
g329
ssI189
(dp789
I0
g228
sI30
g462
ssI190
(dp790
I89
g668
sI4
g281
ssI191
(dp791
I16
g388
sI5
g303
ssI192
(dp792
I52
g546
sI4
g263
ssI193
(dp793
I27
g446
sI44
g517
ssI194
(dp794
I53
g552
sI69
g603
ssI195
(dp795
I99
g699
sI11
g355
sI22
g423
ssI196
(dp796
I51
g542
sI11
g347
ssI197
(dp797
I17
g390
sI5
g287
ssI198
(dp798
I4
g264
sI7
g319
ssI199
(dp799
I84
g653
sI7
g323
sssS'graph'
p800
(dp801
sS'adjlist_dict_factory'
p802
g209
sS'adj'
p803
g212
sb.