ccopy_reg
_reconstructor
p0
(cnetworkx.classes.graph
Graph
p1
c__builtin__
object
p2
Ntp3
Rp4
(dp5
S'node'
p6
(dp7
I0
(dp8
sI1
(dp9
sI2
(dp10
sI3
(dp11
sI4
(dp12
sI5
(dp13
sI6
(dp14
sI7
(dp15
sI8
(dp16
sI9
(dp17
sI10
(dp18
sI11
(dp19
sI12
(dp20
sI13
(dp21
sI14
(dp22
sI15
(dp23
sI16
(dp24
sI17
(dp25
sI18
(dp26
sI19
(dp27
sI20
(dp28
sI21
(dp29
sI22
(dp30
sI23
(dp31
sI24
(dp32
sI25
(dp33
sI26
(dp34
sI27
(dp35
sI28
(dp36
sI29
(dp37
sI30
(dp38
sI31
(dp39
sI32
(dp40
sI33
(dp41
sI34
(dp42
sI35
(dp43
sI36
(dp44
sI37
(dp45
sI38
(dp46
sI39
(dp47
sI40
(dp48
sI41
(dp49
sI42
(dp50
sI43
(dp51
sI44
(dp52
sI45
(dp53
sI46
(dp54
sI47
(dp55
sI48
(dp56
sI49
(dp57
sI50
(dp58
sI51
(dp59
sI52
(dp60
sI53
(dp61
sI54
(dp62
sI55
(dp63
sI56
(dp64
sI57
(dp65
sI58
(dp66
sI59
(dp67
sI60
(dp68
sI61
(dp69
sI62
(dp70
sI63
(dp71
sI64
(dp72
sI65
(dp73
sI66
(dp74
sI67
(dp75
sI68
(dp76
sI69
(dp77
sI70
(dp78
sI71
(dp79
sI72
(dp80
sI73
(dp81
sI74
(dp82
sI75
(dp83
sI76
(dp84
sI77
(dp85
sI78
(dp86
sI79
(dp87
sI80
(dp88
sI81
(dp89
sI82
(dp90
sI83
(dp91
sI84
(dp92
sI85
(dp93
sI86
(dp94
sI87
(dp95
sI88
(dp96
sI89
(dp97
sI90
(dp98
sI91
(dp99
sI92
(dp100
sI93
(dp101
sI94
(dp102
sI95
(dp103
sI96
(dp104
sI97
(dp105
sI98
(dp106
sI99
(dp107
sI100
(dp108
sI101
(dp109
sI102
(dp110
sI103
(dp111
sI104
(dp112
sI105
(dp113
sI106
(dp114
sI107
(dp115
sI108
(dp116
sI109
(dp117
sI110
(dp118
sI111
(dp119
sI112
(dp120
sI113
(dp121
sI114
(dp122
sI115
(dp123
sI116
(dp124
sI117
(dp125
sI118
(dp126
sI119
(dp127
sI120
(dp128
sI121
(dp129
sI122
(dp130
sI123
(dp131
sI124
(dp132
sI125
(dp133
sI126
(dp134
sI127
(dp135
sI128
(dp136
sI129
(dp137
sI130
(dp138
sI131
(dp139
sI132
(dp140
sI133
(dp141
sI134
(dp142
sI135
(dp143
sI136
(dp144
sI137
(dp145
sI138
(dp146
sI139
(dp147
sI140
(dp148
sI141
(dp149
sI142
(dp150
sI143
(dp151
sI144
(dp152
sI145
(dp153
sI146
(dp154
sI147
(dp155
sI148
(dp156
sI149
(dp157
sI150
(dp158
sI151
(dp159
sI152
(dp160
sI153
(dp161
sI154
(dp162
sI155
(dp163
sI156
(dp164
sI157
(dp165
sI158
(dp166
sI159
(dp167
sI160
(dp168
sI161
(dp169
sI162
(dp170
sI163
(dp171
sI164
(dp172
sI165
(dp173
sI166
(dp174
sI167
(dp175
sI168
(dp176
sI169
(dp177
sI170
(dp178
sI171
(dp179
sI172
(dp180
sI173
(dp181
sI174
(dp182
sI175
(dp183
sI176
(dp184
sI177
(dp185
sI178
(dp186
sI179
(dp187
sI180
(dp188
sI181
(dp189
sI182
(dp190
sI183
(dp191
sI184
(dp192
sI185
(dp193
sI186
(dp194
sI187
(dp195
sI188
(dp196
sI189
(dp197
sI190
(dp198
sI191
(dp199
sI192
(dp200
sI193
(dp201
sI194
(dp202
sI195
(dp203
sI196
(dp204
sI197
(dp205
sI198
(dp206
sI199
(dp207
ssS'node_dict_factory'
p208
c__builtin__
dict
p209
sS'edge_attr_dict_factory'
p210
g209
sS'edge'
p211
(dp212
I0
(dp213
I163
(dp214
sI100
(dp215
sI101
(dp216
sI104
(dp217
sI107
(dp218
sI109
(dp219
sI143
(dp220
sI114
(dp221
sI122
(dp222
sI191
(dp223
sI190
(dp224
sI127
(dp225
ssI1
(dp226
I129
(dp227
sI195
(dp228
sI100
(dp229
sI101
(dp230
sI102
(dp231
sI103
(dp232
sI104
(dp233
sI161
(dp234
sI193
(dp235
sI141
(dp236
sI142
(dp237
sI111
(dp238
sI112
(dp239
sI113
(dp240
sI146
(dp241
sI116
(dp242
sI117
(dp243
sI143
(dp244
sI133
(dp245
ssI2
(dp246
I160
(dp247
sI192
(dp248
sI100
(dp249
sI102
(dp250
sI108
(dp251
sI175
(dp252
sI148
(dp253
sI119
(dp254
sI121
(dp255
sI187
(dp256
ssI3
(dp257
I130
(dp258
sI100
(dp259
sI102
(dp260
sI103
(dp261
sI136
(dp262
sI106
(dp263
sI109
(dp264
sI111
(dp265
sI152
(dp266
sI155
(dp267
ssI4
(dp268
I128
(dp269
sI102
(dp270
sI188
(dp271
sI116
(dp272
sI185
(dp273
sI124
(dp274
ssI5
(dp275
I100
(dp276
sI198
(dp277
sI102
(dp278
sI105
(dp279
sI176
(dp280
sI146
(dp281
sI115
(dp282
sI149
(dp283
sI169
(dp284
sI126
(dp285
ssI6
(dp286
I100
(dp287
sI101
(dp288
sI166
(dp289
sI167
(dp290
sI106
(dp291
sI171
(dp292
sI140
(dp293
sI110
(dp294
sI175
(dp295
sI144
(dp296
sI184
(dp297
sI158
(dp298
sI120
(dp299
sI164
(dp300
sI156
(dp301
sI125
(dp302
sI126
(dp303
ssI7
(dp304
I132
(dp305
sI198
(dp306
sI102
(dp307
sI167
(dp308
sI105
(dp309
sI108
(dp310
sI110
(dp311
sI113
(dp312
sI183
(dp313
sI124
(dp314
ssI8
(dp315
I160
(dp316
sI161
(dp317
sI103
(dp318
sI136
(dp319
sI137
(dp320
sI106
(dp321
sI168
(dp322
sI119
(dp323
sI155
(dp324
ssI9
(dp325
I194
(dp326
sI163
(dp327
sI101
(dp328
sI102
(dp329
sI135
(dp330
sI172
(dp331
sI112
(dp332
sI145
(dp333
sI115
(dp334
sI118
(dp335
sI153
(dp336
sI122
(dp337
sI123
(dp338
ssI10
(dp339
I130
(dp340
sI131
(dp341
sI100
(dp342
sI109
(dp343
sI183
(dp344
sI154
(dp345
sI157
(dp346
ssI11
(dp347
I192
(dp348
sI103
(dp349
sI170
(dp350
sI109
(dp351
sI117
(dp352
sI138
(dp353
sI159
(dp354
ssI12
(dp355
I128
(dp356
sI129
(dp357
sI194
(dp358
sI131
(dp359
sI196
(dp360
sI102
(dp361
sI140
(dp362
sI141
(dp363
sI110
(dp364
sI114
(dp365
sI181
(dp366
sI121
(dp367
sI154
(dp368
sI123
(dp369
ssI13
(dp370
I100
(dp371
sI102
(dp372
sI199
(dp373
sI135
(dp374
sI178
(dp375
sI153
(dp376
ssI14
(dp377
I109
(dp378
ssI15
(dp379
I106
(dp380
sI147
(dp381
sI100
(dp382
sI125
(dp383
sI162
(dp384
ssI16
(dp385
I168
(dp386
sI101
(dp387
sI109
(dp388
ssI17
(dp389
I113
(dp390
sI101
(dp391
sI165
(dp392
ssI18
(dp393
I120
(dp394
sI159
(dp395
sI116
(dp396
sI101
(dp397
sI157
(dp398
ssI19
(dp399
I104
(dp400
sI113
(dp401
sI139
(dp402
ssI20
(dp403
I170
(dp404
sI156
(dp405
sI165
(dp406
sI110
(dp407
sI111
(dp408
ssI21
(dp409
I100
(dp410
sI138
(dp411
sI113
(dp412
sI150
(dp413
sI186
(dp414
sI190
(dp415
ssI22
(dp416
I117
(dp417
sI119
(dp418
ssI23
(dp419
I113
(dp420
sI132
(dp421
sI171
(dp422
sI100
(dp423
ssI24
(dp424
I122
(dp425
sI115
(dp426
sI134
(dp427
ssI25
(dp428
I139
(dp429
sI102
(dp430
sI103
(dp431
ssI26
(dp432
I104
(dp433
sI120
(dp434
ssI27
(dp435
I114
(dp436
sI174
(dp437
sI109
(dp438
sI134
(dp439
sI151
(dp440
ssI28
(dp441
I102
(dp442
sI103
(dp443
sI137
(dp444
sI173
(dp445
sI145
(dp446
sI186
(dp447
ssI29
(dp448
I185
(dp449
sI178
(dp450
sI127
(dp451
sI119
(dp452
ssI30
(dp453
I176
(dp454
sI177
(dp455
sI115
(dp456
sI182
(dp457
sI188
(dp458
sI158
(dp459
sI127
(dp460
ssI31
(dp461
I144
(dp462
sI177
(dp463
sI122
(dp464
sI100
(dp465
ssI32
(dp466
I162
(dp467
sI124
(dp468
sI103
(dp469
ssI33
(dp470
I113
(dp471
sI115
(dp472
ssI34
(dp473
I148
(dp474
sI126
(dp475
sI111
(dp476
ssI35
(dp477
I115
(dp478
sI111
(dp479
ssI36
(dp480
I100
(dp481
sI101
(dp482
sI174
(dp483
ssI37
(dp484
I113
(dp485
sI111
(dp486
ssI38
(dp487
I151
(dp488
sI102
(dp489
sI111
(dp490
ssI39
(dp491
I193
(dp492
sI197
(dp493
sI102
(dp494
sI119
(dp495
ssI40
(dp496
I136
(dp497
sI114
(dp498
ssI41
(dp499
I104
(dp500
sI130
(dp501
sI147
(dp502
ssI42
(dp503
I116
(dp504
sI101
(dp505
ssI43
(dp506
I106
(dp507
sI114
(dp508
sI189
(dp509
ssI44
(dp510
I181
(dp511
sI115
(dp512
sI149
(dp513
sI119
(dp514
ssI45
(dp515
I115
(dp516
sI126
(dp517
ssI46
(dp518
I122
(dp519
sI126
(dp520
ssI47
(dp521
I104
(dp522
sI126
(dp523
ssI48
(dp524
I129
(dp525
sI122
(dp526
ssI49
(dp527
I152
(dp528
sI179
(dp529
sI100
(dp530
sI142
(dp531
ssI50
(dp532
I145
(dp533
sI115
(dp534
sI191
(dp535
ssI51
(dp536
I164
(dp537
sI102
(dp538
sI111
(dp539
ssI52
(dp540
I142
(dp541
sI126
(dp542
ssI53
(dp543
I104
(dp544
sI102
(dp545
ssI54
(dp546
I122
(dp547
sI100
(dp548
ssI55
(dp549
I152
(dp550
sI123
(dp551
ssI56
(dp552
I136
(dp553
sI110
(dp554
ssI57
(dp555
I101
(dp556
sI166
(dp557
sI135
(dp558
ssI58
(dp559
I122
(dp560
sI179
(dp561
sI100
(dp562
sI182
(dp563
ssI59
(dp564
I120
(dp565
sI124
(dp566
ssI60
(dp567
I115
(dp568
sI102
(dp569
ssI61
(dp570
I144
(dp571
sI108
(dp572
ssI62
(dp573
I104
(dp574
sI100
(dp575
ssI63
(dp576
I145
(dp577
sI116
(dp578
sI189
(dp579
ssI64
(dp580
I123
(dp581
sI108
(dp582
ssI65
(dp583
I180
(dp584
sI116
(dp585
sI101
(dp586
ssI66
(dp587
I104
(dp588
sI114
(dp589
ssI67
(dp590
I102
(dp591
sI127
(dp592
ssI68
(dp593
I187
(dp594
sI101
(dp595
sI135
(dp596
ssI69
(dp597
I124
(dp598
sI134
(dp599
ssI70
(dp600
I180
(dp601
sI100
(dp602
sI111
(dp603
ssI71
(dp604
I105
(dp605
sI172
(dp606
sI102
(dp607
ssI72
(dp608
I130
(dp609
sI127
(dp610
ssI73
(dp611
I168
(dp612
sI134
(dp613
ssI74
(dp614
I119
(dp615
sI103
(dp616
ssI75
(dp617
I124
(dp618
sI143
(dp619
ssI76
(dp620
I129
(dp621
sI199
(dp622
sI143
(dp623
ssI77
(dp624
I105
(dp625
sI100
(dp626
sI197
(dp627
ssI78
(dp628
I195
(dp629
sI126
(dp630
sI111
(dp631
ssI79
(dp632
I101
(dp633
sI166
(dp634
ssI80
(dp635
I104
(dp636
sI153
(dp637
ssI81
(dp638
I102
(dp639
ssI82
(dp640
I168
(dp641
sI101
(dp642
ssI83
(dp643
I148
(dp644
sI127
(dp645
ssI84
(dp646
I100
(dp647
sI159
(dp648
ssI85
(dp649
I138
(dp650
sI119
(dp651
ssI86
(dp652
I146
(dp653
sI109
(dp654
ssI87
(dp655
I100
(dp656
sI166
(dp657
ssI88
(dp658
I120
(dp659
sI130
(dp660
ssI89
(dp661
I138
(dp662
sI116
(dp663
ssI90
(dp664
I119
(dp665
sI103
(dp666
ssI91
(dp667
I168
(dp668
sI109
(dp669
ssI92
(dp670
I185
(dp671
sI103
(dp672
ssI93
(dp673
I147
(dp674
sI143
(dp675
ssI94
(dp676
I115
(dp677
sI102
(dp678
ssI95
(dp679
I196
(dp680
sI126
(dp681
sI102
(dp682
ssI96
(dp683
I160
(dp684
sI166
(dp685
ssI97
(dp686
I100
(dp687
sI125
(dp688
ssI98
(dp689
I117
(dp690
sI158
(dp691
ssI99
(dp692
I144
(dp693
sI127
(dp694
ssI100
(dp695
I0
g215
sI1
g229
sI2
g249
sI3
g259
sI5
g276
sI6
g287
sI10
g342
sI13
g371
sI15
g382
sI21
g410
sI23
g423
sI31
g465
sI36
g481
sI49
g530
sI54
g548
sI58
g562
sI62
g575
sI70
g602
sI77
g626
sI84
g647
sI87
g656
sI97
g687
ssI101
(dp696
I0
g216
sI1
g230
sI36
g482
sI6
g288
sI65
g586
sI9
g328
sI42
g505
sI82
g642
sI79
g633
sI16
g387
sI17
g391
sI18
g397
sI57
g556
sI68
g595
ssI102
(dp697
I1
g231
sI2
g250
sI3
g260
sI4
g270
sI5
g278
sI38
g489
sI7
g307
sI9
g329
sI39
g494
sI12
g361
sI13
g372
sI60
g569
sI81
g639
sI51
g538
sI53
g545
sI67
g591
sI25
g430
sI71
g607
sI28
g442
sI94
g678
sI95
g682
ssI103
(dp698
I32
g469
sI1
g232
sI3
g261
sI8
g318
sI92
g672
sI74
g616
sI11
g349
sI25
g431
sI90
g666
sI28
g443
ssI104
(dp699
I0
g217
sI1
g233
sI66
g588
sI41
g500
sI47
g522
sI80
g636
sI19
g400
sI53
g544
sI26
g433
sI62
g574
ssI105
(dp700
I71
g605
sI5
g279
sI77
g625
sI7
g309
ssI106
(dp701
I8
g321
sI43
g507
sI3
g263
sI6
g291
sI15
g380
ssI107
(dp702
I0
g218
ssI108
(dp703
I64
g582
sI2
g251
sI61
g572
sI7
g310
ssI109
(dp704
I0
g219
sI3
g264
sI10
g343
sI11
g351
sI14
g378
sI16
g388
sI91
g669
sI86
g654
sI27
g438
ssI110
(dp705
I56
g554
sI20
g407
sI12
g364
sI6
g294
sI7
g311
ssI111
(dp706
I1
g238
sI34
g476
sI3
g265
sI37
g486
sI38
g490
sI78
g631
sI35
g479
sI20
g408
sI70
g603
sI51
g539
ssI112
(dp707
I1
g239
sI9
g332
ssI113
(dp708
I1
g240
sI33
g471
sI7
g312
sI17
g390
sI19
g401
sI21
g412
sI23
g420
sI37
g485
ssI114
(dp709
I0
g221
sI66
g589
sI40
g498
sI43
g508
sI12
g365
sI27
g436
ssI115
(dp710
I33
g472
sI35
g478
sI5
g282
sI9
g334
sI44
g512
sI45
g516
sI50
g534
sI94
g677
sI24
g426
sI60
g568
sI30
g456
ssI116
(dp711
I1
g242
sI4
g272
sI65
g585
sI42
g504
sI18
g396
sI89
g663
sI63
g578
ssI117
(dp712
I1
g243
sI98
g690
sI11
g352
sI22
g417
ssI118
(dp713
I9
g335
ssI119
(dp714
I2
g254
sI39
g495
sI8
g323
sI74
g615
sI44
g514
sI85
g651
sI22
g418
sI90
g665
sI29
g452
ssI120
(dp715
I88
g659
sI18
g394
sI59
g565
sI26
g434
sI6
g299
ssI121
(dp716
I2
g255
sI12
g367
ssI122
(dp717
I0
g222
sI9
g337
sI46
g519
sI48
g526
sI54
g547
sI24
g425
sI58
g560
sI31
g464
ssI123
(dp718
I64
g581
sI9
g338
sI12
g369
sI55
g551
ssI124
(dp719
I32
g468
sI4
g274
sI69
g598
sI7
g314
sI75
g618
sI59
g566
ssI125
(dp720
I97
g688
sI6
g302
sI15
g383
ssI126
(dp721
I34
g475
sI5
g285
sI6
g303
sI45
g517
sI46
g520
sI47
g523
sI52
g542
sI78
g630
sI95
g681
ssI127
(dp722
I0
g225
sI67
g592
sI72
g610
sI99
g694
sI83
g645
sI29
g451
sI30
g460
ssI128
(dp723
I12
g356
sI4
g269
ssI129
(dp724
I48
g525
sI1
g227
sI12
g357
sI76
g621
ssI130
(dp725
I72
g609
sI41
g501
sI10
g340
sI3
g258
sI88
g660
ssI131
(dp726
I10
g341
sI12
g359
ssI132
(dp727
I23
g421
sI7
g305
ssI133
(dp728
I1
g245
ssI134
(dp729
I24
g427
sI73
g613
sI27
g439
sI69
g599
ssI135
(dp730
I9
g330
sI68
g596
sI13
g374
sI57
g558
ssI136
(dp731
I8
g319
sI40
g497
sI3
g262
sI56
g553
ssI137
(dp732
I8
g320
sI28
g444
ssI138
(dp733
I89
g662
sI11
g353
sI21
g411
sI85
g650
ssI139
(dp734
I25
g429
sI19
g402
ssI140
(dp735
I12
g362
sI6
g293
ssI141
(dp736
I1
g236
sI12
g363
ssI142
(dp737
I1
g237
sI52
g541
sI49
g531
ssI143
(dp738
I0
g220
sI1
g244
sI75
g619
sI76
g623
sI93
g675
ssI144
(dp739
I99
g693
sI61
g571
sI6
g296
sI31
g462
ssI145
(dp740
I9
g333
sI50
g533
sI28
g446
sI63
g577
ssI146
(dp741
I1
g241
sI5
g281
sI86
g653
ssI147
(dp742
I41
g502
sI93
g674
sI15
g381
ssI148
(dp743
I2
g253
sI83
g644
sI34
g474
ssI149
(dp744
I44
g513
sI5
g283
ssI150
(dp745
I21
g413
ssI151
(dp746
I27
g440
sI38
g488
ssI152
(dp747
I49
g528
sI3
g266
sI55
g550
ssI153
(dp748
I80
g637
sI9
g336
sI13
g376
ssI154
(dp749
I10
g345
sI12
g368
ssI155
(dp750
I8
g324
sI3
g267
ssI156
(dp751
I20
g405
sI6
g301
ssI157
(dp752
I10
g346
sI18
g398
ssI158
(dp753
I98
g691
sI30
g459
sI6
g298
ssI159
(dp754
I18
g395
sI11
g354
sI84
g648
ssI160
(dp755
I8
g316
sI96
g684
sI2
g247
ssI161
(dp756
I8
g317
sI1
g234
ssI162
(dp757
I32
g467
sI15
g384
ssI163
(dp758
I0
g214
sI9
g327
ssI164
(dp759
I51
g537
sI6
g300
ssI165
(dp760
I17
g392
sI20
g406
ssI166
(dp761
I96
g685
sI57
g557
sI87
g657
sI6
g289
sI79
g634
ssI167
(dp762
I6
g290
sI7
g308
ssI168
(dp763
I8
g322
sI16
g386
sI82
g641
sI91
g668
sI73
g612
ssI169
(dp764
I5
g284
ssI170
(dp765
I11
g350
sI20
g404
ssI171
(dp766
I6
g292
sI23
g422
ssI172
(dp767
I9
g331
sI71
g606
ssI173
(dp768
I28
g445
ssI174
(dp769
I27
g437
sI36
g483
ssI175
(dp770
I2
g252
sI6
g295
ssI176
(dp771
I5
g280
sI30
g454
ssI177
(dp772
I30
g455
sI31
g463
ssI178
(dp773
I13
g375
sI29
g450
ssI179
(dp774
I49
g529
sI58
g561
ssI180
(dp775
I65
g584
sI70
g601
ssI181
(dp776
I44
g511
sI12
g366
ssI182
(dp777
I58
g563
sI30
g457
ssI183
(dp778
I10
g344
sI7
g313
ssI184
(dp779
I6
g297
ssI185
(dp780
I92
g671
sI4
g273
sI29
g449
ssI186
(dp781
I28
g447
sI21
g414
ssI187
(dp782
I2
g256
sI68
g594
ssI188
(dp783
I4
g271
sI30
g458
ssI189
(dp784
I43
g509
sI63
g579
ssI190
(dp785
I0
g224
sI21
g415
ssI191
(dp786
I0
g223
sI50
g535
ssI192
(dp787
I2
g248
sI11
g348
ssI193
(dp788
I1
g235
sI39
g492
ssI194
(dp789
I9
g326
sI12
g358
ssI195
(dp790
I1
g228
sI78
g629
ssI196
(dp791
I12
g360
sI95
g680
ssI197
(dp792
I77
g627
sI39
g493
ssI198
(dp793
I5
g277
sI7
g306
ssI199
(dp794
I76
g622
sI13
g373
sssS'graph'
p795
(dp796
sS'adjlist_dict_factory'
p797
g209
sS'adj'
p798
g212
sb.