ccopy_reg
_reconstructor
p0
(cnetworkx.classes.graph
Graph
p1
c__builtin__
object
p2
Ntp3
Rp4
(dp5
S'node'
p6
(dp7
I0
(dp8
sI1
(dp9
sI2
(dp10
sI3
(dp11
sI4
(dp12
sI5
(dp13
sI6
(dp14
sI7
(dp15
sI8
(dp16
sI9
(dp17
sI10
(dp18
sI11
(dp19
sI12
(dp20
sI13
(dp21
sI14
(dp22
sI15
(dp23
sI16
(dp24
sI17
(dp25
sI18
(dp26
sI19
(dp27
sI20
(dp28
sI21
(dp29
sI22
(dp30
sI23
(dp31
sI24
(dp32
sI25
(dp33
sI26
(dp34
sI27
(dp35
sI28
(dp36
sI29
(dp37
sI30
(dp38
sI31
(dp39
sI32
(dp40
sI33
(dp41
sI34
(dp42
sI35
(dp43
sI36
(dp44
sI37
(dp45
sI38
(dp46
sI39
(dp47
sI40
(dp48
sI41
(dp49
sI42
(dp50
sI43
(dp51
sI44
(dp52
sI45
(dp53
sI46
(dp54
sI47
(dp55
sI48
(dp56
sI49
(dp57
sI50
(dp58
sI51
(dp59
sI52
(dp60
sI53
(dp61
sI54
(dp62
sI55
(dp63
sI56
(dp64
sI57
(dp65
sI58
(dp66
sI59
(dp67
sI60
(dp68
sI61
(dp69
sI62
(dp70
sI63
(dp71
sI64
(dp72
sI65
(dp73
sI66
(dp74
sI67
(dp75
sI68
(dp76
sI69
(dp77
sI70
(dp78
sI71
(dp79
sI72
(dp80
sI73
(dp81
sI74
(dp82
sI75
(dp83
sI76
(dp84
sI77
(dp85
sI78
(dp86
sI79
(dp87
sI80
(dp88
sI81
(dp89
sI82
(dp90
sI83
(dp91
sI84
(dp92
sI85
(dp93
sI86
(dp94
sI87
(dp95
sI88
(dp96
sI89
(dp97
sI90
(dp98
sI91
(dp99
sI92
(dp100
sI93
(dp101
sI94
(dp102
sI95
(dp103
sI96
(dp104
sI97
(dp105
sI98
(dp106
sI99
(dp107
sI100
(dp108
sI101
(dp109
sI102
(dp110
sI103
(dp111
sI104
(dp112
sI105
(dp113
sI106
(dp114
sI107
(dp115
sI108
(dp116
sI109
(dp117
sI110
(dp118
sI111
(dp119
sI112
(dp120
sI113
(dp121
sI114
(dp122
sI115
(dp123
sI116
(dp124
sI117
(dp125
sI118
(dp126
sI119
(dp127
sI120
(dp128
sI121
(dp129
sI122
(dp130
sI123
(dp131
sI124
(dp132
sI125
(dp133
sI126
(dp134
sI127
(dp135
sI128
(dp136
sI129
(dp137
sI130
(dp138
sI131
(dp139
sI132
(dp140
sI133
(dp141
sI134
(dp142
sI135
(dp143
sI136
(dp144
sI137
(dp145
sI138
(dp146
sI139
(dp147
sI140
(dp148
sI141
(dp149
sI142
(dp150
sI143
(dp151
sI144
(dp152
sI145
(dp153
sI146
(dp154
sI147
(dp155
sI148
(dp156
sI149
(dp157
sI150
(dp158
sI151
(dp159
sI152
(dp160
sI153
(dp161
sI154
(dp162
sI155
(dp163
sI156
(dp164
sI157
(dp165
sI158
(dp166
sI159
(dp167
sI160
(dp168
sI161
(dp169
sI162
(dp170
sI163
(dp171
sI164
(dp172
sI165
(dp173
sI166
(dp174
sI167
(dp175
sI168
(dp176
sI169
(dp177
sI170
(dp178
sI171
(dp179
sI172
(dp180
sI173
(dp181
sI174
(dp182
sI175
(dp183
sI176
(dp184
sI177
(dp185
sI178
(dp186
sI179
(dp187
sI180
(dp188
sI181
(dp189
sI182
(dp190
sI183
(dp191
sI184
(dp192
sI185
(dp193
sI186
(dp194
sI187
(dp195
sI188
(dp196
sI189
(dp197
sI190
(dp198
sI191
(dp199
sI192
(dp200
sI193
(dp201
sI194
(dp202
sI195
(dp203
sI196
(dp204
sI197
(dp205
sI198
(dp206
sI199
(dp207
ssS'node_dict_factory'
p208
c__builtin__
dict
p209
sS'edge_attr_dict_factory'
p210
g209
sS'edge'
p211
(dp212
I0
(dp213
I192
(dp214
sI130
(dp215
sI195
(dp216
sI100
(dp217
sI101
(dp218
sI102
(dp219
sI103
(dp220
sI104
(dp221
sI105
(dp222
sI171
(dp223
sI110
(dp224
sI115
(dp225
sI117
(dp226
sI119
(dp227
sI132
(dp228
sI154
(dp229
sI159
(dp230
sI124
(dp231
sI157
(dp232
sI133
(dp233
ssI1
(dp234
I129
(dp235
sI136
(dp236
sI139
(dp237
sI143
(dp238
sI160
(dp239
sI164
(dp240
sI173
(dp241
sI175
(dp242
sI176
(dp243
sI179
(dp244
sI186
(dp245
sI192
(dp246
sI100
(dp247
sI101
(dp248
sI102
(dp249
sI104
(dp250
sI106
(dp251
sI108
(dp252
sI110
(dp253
sI120
(dp254
sI122
(dp255
sI123
(dp256
sI124
(dp257
sI125
(dp258
ssI2
(dp259
I165
(dp260
sI100
(dp261
sI101
(dp262
sI103
(dp263
sI136
(dp264
sI138
(dp265
sI109
(dp266
sI174
(dp267
sI141
(dp268
sI144
(dp269
sI113
(dp270
sI193
(dp271
sI148
(dp272
sI196
(dp273
sI184
(dp274
sI185
(dp275
sI122
(dp276
sI188
(dp277
sI158
(dp278
sI133
(dp279
ssI3
(dp280
I100
(dp281
sI101
(dp282
sI134
(dp283
sI135
(dp284
sI106
(dp285
sI107
(dp286
sI112
(dp287
sI146
(dp288
sI150
(dp289
sI164
(dp290
sI166
(dp291
sI165
(dp292
ssI4
(dp293
I131
(dp294
sI132
(dp295
sI138
(dp296
sI141
(dp297
sI142
(dp298
sI145
(dp299
sI154
(dp300
sI158
(dp301
sI163
(dp302
sI168
(dp303
sI194
(dp304
sI101
(dp305
sI103
(dp306
sI105
(dp307
sI107
(dp308
sI108
(dp309
sI109
(dp310
sI112
(dp311
sI114
(dp312
sI115
(dp313
sI126
(dp314
sI127
(dp315
ssI5
(dp316
I104
(dp317
sI121
(dp318
sI102
(dp319
sI161
(dp320
ssI6
(dp321
I105
(dp322
sI101
(dp323
sI190
(dp324
ssI7
(dp325
I193
(dp326
sI162
(dp327
sI150
(dp328
sI103
(dp329
sI104
(dp330
sI147
(dp331
sI116
(dp332
sI117
(dp333
sI118
(dp334
sI156
(dp335
sI181
(dp336
ssI8
(dp337
I176
(dp338
sI102
(dp339
sI135
(dp340
sI106
(dp341
sI111
(dp342
sI144
(dp343
sI151
(dp344
ssI9
(dp345
I197
(dp346
sI126
(dp347
sI102
(dp348
sI111
(dp349
ssI10
(dp350
I105
(dp351
sI108
(dp352
ssI11
(dp353
I104
(dp354
sI121
(dp355
sI102
(dp356
ssI12
(dp357
I128
(dp358
sI130
(dp359
sI131
(dp360
sI134
(dp361
sI102
(dp362
sI199
(dp363
sI104
(dp364
sI139
(dp365
sI143
(dp366
sI177
(dp367
sI178
(dp368
sI147
(dp369
sI149
(dp370
sI118
(dp371
sI183
(dp372
sI120
(dp373
sI175
(dp374
sI156
(dp375
sI182
(dp376
ssI13
(dp377
I137
(dp378
sI113
(dp379
sI100
(dp380
sI111
(dp381
ssI14
(dp382
I128
(dp383
sI101
(dp384
sI198
(dp385
sI112
(dp386
sI116
(dp387
sI152
(dp388
sI123
(dp389
ssI15
(dp390
I111
(dp391
sI113
(dp392
sI119
(dp393
sI153
(dp394
sI155
(dp395
sI189
(dp396
ssI16
(dp397
I101
(dp398
sI127
(dp399
ssI17
(dp400
I113
(dp401
sI187
(dp402
sI103
(dp403
ssI18
(dp404
I194
(dp405
sI100
(dp406
sI101
(dp407
sI172
(dp408
sI140
(dp409
sI142
(dp410
sI146
(dp411
sI183
(dp412
sI185
(dp413
ssI19
(dp414
I168
(dp415
sI196
(dp416
sI111
(dp417
sI180
(dp418
sI103
(dp419
ssI20
(dp420
I104
(dp421
sI103
(dp422
ssI21
(dp423
I104
(dp424
sI125
(dp425
sI111
(dp426
ssI22
(dp427
I121
(dp428
sI110
(dp429
ssI23
(dp430
I104
(dp431
sI113
(dp432
sI195
(dp433
ssI24
(dp434
I123
(dp435
sI101
(dp436
sI191
(dp437
ssI25
(dp438
I161
(dp439
sI106
(dp440
sI101
(dp441
sI190
(dp442
ssI26
(dp443
I186
(dp444
sI125
(dp445
sI103
(dp446
ssI27
(dp447
I122
(dp448
sI101
(dp449
ssI28
(dp450
I100
(dp451
sI111
(dp452
ssI29
(dp453
I129
(dp454
sI125
(dp455
sI102
(dp456
sI137
(dp457
ssI30
(dp458
I125
(dp459
sI111
(dp460
ssI31
(dp461
I155
(dp462
sI100
(dp463
sI101
(dp464
ssI32
(dp465
I111
(dp466
ssI33
(dp467
I103
(dp468
sI108
(dp469
sI199
(dp470
sI140
(dp471
sI177
(dp472
sI178
(dp473
sI182
(dp474
sI169
(dp475
ssI34
(dp476
I108
(dp477
sI101
(dp478
ssI35
(dp479
I130
(dp480
sI101
(dp481
ssI36
(dp482
I160
(dp483
sI187
(dp484
sI123
(dp485
sI101
(dp486
sI167
(dp487
ssI37
(dp488
I130
(dp489
sI100
(dp490
sI198
(dp491
sI151
(dp492
ssI38
(dp493
I101
(dp494
sI102
(dp495
ssI39
(dp496
I125
(dp497
sI103
(dp498
ssI40
(dp499
I104
(dp500
sI100
(dp501
ssI41
(dp502
I104
(dp503
sI105
(dp504
sI167
(dp505
ssI42
(dp506
I128
(dp507
sI108
(dp508
ssI43
(dp509
I100
(dp510
sI157
(dp511
sI111
(dp512
ssI44
(dp513
I188
(dp514
sI106
(dp515
sI148
(dp516
sI102
(dp517
ssI45
(dp518
I101
(dp519
sI143
(dp520
ssI46
(dp521
I113
(dp522
sI100
(dp523
sI149
(dp524
sI189
(dp525
ssI47
(dp526
I101
(dp527
sI111
(dp528
ssI48
(dp529
I136
(dp530
sI169
(dp531
sI125
(dp532
ssI49
(dp533
I115
(dp534
sI100
(dp535
sI171
(dp536
ssI50
(dp537
I105
(dp538
sI126
(dp539
ssI51
(dp540
I125
(dp541
ssI52
(dp542
I152
(dp543
sI153
(dp544
sI108
(dp545
sI119
(dp546
ssI53
(dp547
I145
(dp548
sI173
(dp549
sI127
(dp550
ssI54
(dp551
I128
(dp552
sI105
(dp553
ssI55
(dp554
I128
(dp555
sI124
(dp556
sI159
(dp557
ssI56
(dp558
I147
(dp559
sI101
(dp560
ssI57
(dp561
I181
(dp562
sI130
(dp563
sI162
(dp564
sI143
(dp565
ssI58
(dp566
I106
(dp567
sI163
(dp568
sI166
(dp569
sI102
(dp570
ssI59
(dp571
I156
(dp572
sI103
(dp573
ssI60
(dp574
I184
(dp575
sI130
(dp576
sI140
(dp577
ssI61
(dp578
I104
(dp579
sI122
(dp580
ssI62
(dp581
I105
(dp582
sI141
(dp583
sI174
(dp584
ssI63
(dp585
I120
(dp586
sI170
(dp587
sI110
(dp588
ssI64
(dp589
I148
(dp590
sI135
(dp591
ssI65
(dp592
I128
(dp593
sI135
(dp594
ssI66
(dp595
I115
(dp596
sI116
(dp597
ssI67
(dp598
I104
(dp599
sI152
(dp600
ssI68
(dp601
I101
(dp602
ssI69
(dp603
I137
(dp604
sI170
(dp605
sI165
(dp606
ssI70
(dp607
I169
(dp608
sI159
(dp609
ssI71
(dp610
I128
(dp611
sI129
(dp612
ssI72
(dp613
I180
(dp614
sI108
(dp615
sI103
(dp616
ssI73
(dp617
I156
(dp618
sI197
(dp619
sI135
(dp620
ssI74
(dp621
I160
(dp622
sI117
(dp623
ssI75
(dp624
I179
(dp625
sI102
(dp626
sI119
(dp627
ssI76
(dp628
I164
(dp629
sI101
(dp630
ssI77
(dp631
I100
(dp632
sI142
(dp633
ssI78
(dp634
I101
(dp635
sI119
(dp636
ssI79
(dp637
I141
(dp638
sI127
(dp639
ssI80
(dp640
I177
(dp641
sI103
(dp642
ssI81
(dp643
I156
(dp644
sI141
(dp645
ssI82
(dp646
I144
(dp647
sI151
(dp648
ssI83
(dp649
I137
(dp650
sI170
(dp651
sI191
(dp652
ssI84
(dp653
I162
(dp654
sI143
(dp655
ssI85
(dp656
I137
(dp657
sI109
(dp658
ssI86
(dp659
I137
(dp660
sI103
(dp661
ssI87
(dp662
I153
(dp663
sI170
(dp664
ssI88
(dp665
I115
(dp666
sI101
(dp667
ssI89
(dp668
I106
(dp669
sI165
(dp670
ssI90
(dp671
I147
(dp672
sI126
(dp673
ssI91
(dp674
I122
(dp675
sI100
(dp676
ssI92
(dp677
I130
(dp678
sI158
(dp679
ssI93
(dp680
I104
(dp681
sI165
(dp682
ssI94
(dp683
I162
(dp684
sI135
(dp685
ssI95
(dp686
I147
(dp687
sI103
(dp688
ssI96
(dp689
I142
(dp690
sI111
(dp691
ssI97
(dp692
I177
(dp693
sI131
(dp694
ssI98
(dp695
I160
(dp696
sI153
(dp697
ssI99
(dp698
I184
(dp699
sI173
(dp700
ssI100
(dp701
I0
g217
sI1
g247
sI2
g261
sI3
g281
sI37
g490
sI40
g501
sI43
g510
sI13
g380
sI46
g523
sI77
g632
sI49
g535
sI18
g406
sI91
g676
sI28
g451
sI31
g463
ssI101
(dp702
I0
g218
sI1
g248
sI2
g262
sI3
g282
sI4
g305
sI6
g323
sI14
g384
sI16
g398
sI18
g407
sI24
g436
sI25
g441
sI27
g449
sI31
g464
sI34
g478
sI35
g481
sI36
g486
sI38
g494
sI45
g519
sI47
g527
sI56
g560
sI68
g602
sI76
g630
sI78
g635
sI88
g667
ssI102
(dp703
I0
g219
sI1
g249
sI75
g626
sI5
g319
sI38
g495
sI8
g339
sI9
g348
sI11
g356
sI12
g362
sI44
g517
sI58
g570
sI29
g456
ssI103
(dp704
I0
g220
sI33
g468
sI2
g263
sI4
g306
sI7
g329
sI72
g616
sI39
g498
sI80
g642
sI17
g403
sI19
g419
sI20
g422
sI86
g661
sI26
g446
sI59
g573
sI95
g688
ssI104
(dp705
I0
g221
sI1
g250
sI67
g599
sI5
g317
sI7
g330
sI40
g500
sI41
g503
sI11
g354
sI12
g364
sI93
g681
sI20
g421
sI21
g424
sI23
g431
sI61
g579
ssI105
(dp706
I0
g222
sI4
g307
sI6
g322
sI41
g504
sI10
g351
sI50
g538
sI54
g553
sI62
g582
ssI106
(dp707
I1
g251
sI3
g285
sI8
g341
sI44
g515
sI89
g669
sI25
g440
sI58
g567
ssI107
(dp708
I3
g286
sI4
g308
ssI108
(dp709
I1
g252
sI34
g477
sI4
g309
sI33
g469
sI72
g615
sI10
g352
sI52
g545
sI42
g508
ssI109
(dp710
I2
g266
sI4
g310
sI85
g658
ssI110
(dp711
I0
g224
sI1
g253
sI22
g429
sI63
g588
ssI111
(dp712
I32
g466
sI96
g691
sI8
g342
sI9
g349
sI43
g512
sI13
g381
sI15
g391
sI19
g417
sI21
g426
sI47
g528
sI28
g452
sI30
g460
ssI112
(dp713
I3
g287
sI4
g311
sI14
g386
ssI113
(dp714
I2
g270
sI13
g379
sI46
g522
sI15
g392
sI17
g401
sI23
g432
ssI114
(dp715
I4
g312
ssI115
(dp716
I0
g225
sI49
g534
sI66
g596
sI4
g313
sI88
g666
ssI116
(dp717
I66
g597
sI14
g387
sI7
g332
ssI117
(dp718
I0
g226
sI74
g623
sI7
g333
ssI118
(dp719
I12
g371
sI7
g334
ssI119
(dp720
I0
g227
sI75
g627
sI52
g546
sI78
g636
sI15
g393
ssI120
(dp721
I1
g254
sI12
g373
sI63
g586
ssI121
(dp722
I11
g355
sI5
g318
sI22
g428
ssI122
(dp723
I91
g675
sI1
g255
sI2
g276
sI27
g448
sI61
g580
ssI123
(dp724
I24
g435
sI1
g256
sI36
g485
sI14
g389
ssI124
(dp725
I0
g231
sI1
g257
sI55
g556
ssI125
(dp726
I1
g258
sI39
g497
sI48
g532
sI51
g541
sI21
g425
sI26
g445
sI29
g455
sI30
g459
ssI126
(dp727
I9
g347
sI50
g539
sI4
g314
sI90
g673
ssI127
(dp728
I16
g399
sI4
g315
sI53
g550
sI79
g639
ssI128
(dp729
I65
g593
sI71
g611
sI42
g507
sI12
g358
sI14
g383
sI54
g552
sI55
g555
ssI129
(dp730
I1
g235
sI29
g454
sI71
g612
ssI130
(dp731
I0
g215
sI35
g480
sI37
g489
sI92
g678
sI12
g359
sI57
g563
sI60
g576
ssI131
(dp732
I12
g360
sI4
g294
sI97
g694
ssI132
(dp733
I0
g228
sI4
g295
ssI133
(dp734
I0
g233
sI2
g279
ssI134
(dp735
I3
g283
sI12
g361
ssI135
(dp736
I64
g591
sI65
g594
sI3
g284
sI8
g340
sI73
g620
sI94
g685
ssI136
(dp737
I48
g530
sI1
g236
sI2
g264
ssI137
(dp738
I69
g604
sI13
g378
sI83
g650
sI85
g657
sI86
g660
sI29
g457
ssI138
(dp739
I2
g265
sI4
g296
ssI139
(dp740
I1
g237
sI12
g365
ssI140
(dp741
I33
g471
sI18
g409
sI60
g577
ssI141
(dp742
I81
g645
sI2
g268
sI4
g297
sI62
g583
sI79
g638
ssI142
(dp743
I96
g690
sI18
g410
sI4
g298
sI77
g633
ssI143
(dp744
I84
g655
sI1
g238
sI12
g366
sI45
g520
sI57
g565
ssI144
(dp745
I8
g343
sI2
g269
sI82
g647
ssI145
(dp746
I4
g299
sI53
g548
ssI146
(dp747
I18
g411
sI3
g288
ssI147
(dp748
I56
g559
sI90
g672
sI95
g687
sI12
g369
sI7
g331
ssI148
(dp749
I64
g590
sI2
g272
sI44
g516
ssI149
(dp750
I12
g370
sI46
g524
ssI150
(dp751
I3
g289
sI7
g328
ssI151
(dp752
I8
g344
sI82
g648
sI37
g492
ssI152
(dp753
I67
g600
sI52
g543
sI14
g388
ssI153
(dp754
I98
g697
sI87
g663
sI52
g544
sI15
g394
ssI154
(dp755
I0
g229
sI4
g300
ssI155
(dp756
I31
g462
sI15
g395
ssI156
(dp757
I73
g618
sI59
g572
sI12
g375
sI81
g644
sI7
g335
ssI157
(dp758
I0
g232
sI43
g511
ssI158
(dp759
I92
g679
sI2
g278
sI4
g301
ssI159
(dp760
I0
g230
sI70
g609
sI55
g557
ssI160
(dp761
I1
g239
sI74
g622
sI36
g483
sI98
g696
ssI161
(dp762
I25
g439
sI5
g320
ssI162
(dp763
I57
g564
sI84
g654
sI94
g684
sI7
g327
ssI163
(dp764
I58
g568
sI4
g302
ssI164
(dp765
I1
g240
sI3
g290
sI76
g629
ssI165
(dp766
I89
g670
sI2
g260
sI3
g292
sI69
g606
sI93
g682
ssI166
(dp767
I58
g569
sI3
g291
ssI167
(dp768
I41
g505
sI36
g487
ssI168
(dp769
I19
g415
sI4
g303
ssI169
(dp770
I48
g531
sI33
g475
sI70
g608
ssI170
(dp771
I87
g664
sI83
g651
sI69
g605
sI63
g587
ssI171
(dp772
I0
g223
sI49
g536
ssI172
(dp773
I18
g408
ssI173
(dp774
I1
g241
sI99
g700
sI53
g549
ssI174
(dp775
I2
g267
sI62
g584
ssI175
(dp776
I1
g242
sI12
g374
ssI176
(dp777
I8
g338
sI1
g243
ssI177
(dp778
I80
g641
sI33
g472
sI12
g367
sI97
g693
ssI178
(dp779
I33
g473
sI12
g368
ssI179
(dp780
I1
g244
sI75
g625
ssI180
(dp781
I72
g614
sI19
g418
ssI181
(dp782
I57
g562
sI7
g336
ssI182
(dp783
I33
g474
sI12
g376
ssI183
(dp784
I18
g412
sI12
g372
ssI184
(dp785
I2
g274
sI99
g699
sI60
g575
ssI185
(dp786
I2
g275
sI18
g413
ssI186
(dp787
I1
g245
sI26
g444
ssI187
(dp788
I17
g402
sI36
g484
ssI188
(dp789
I2
g277
sI44
g514
ssI189
(dp790
I46
g525
sI15
g396
ssI190
(dp791
I25
g442
sI6
g324
ssI191
(dp792
I24
g437
sI83
g652
ssI192
(dp793
I0
g214
sI1
g246
ssI193
(dp794
I2
g271
sI7
g326
ssI194
(dp795
I18
g405
sI4
g304
ssI195
(dp796
I0
g216
sI23
g433
ssI196
(dp797
I2
g273
sI19
g416
ssI197
(dp798
I9
g346
sI73
g619
ssI198
(dp799
I37
g491
sI14
g385
ssI199
(dp800
I33
g470
sI12
g363
sssS'graph'
p801
(dp802
sS'adjlist_dict_factory'
p803
g209
sS'adj'
p804
g212
sb.