ccopy_reg
_reconstructor
p0
(cnetworkx.classes.graph
Graph
p1
c__builtin__
object
p2
Ntp3
Rp4
(dp5
S'node'
p6
(dp7
I0
(dp8
sI1
(dp9
sI2
(dp10
sI3
(dp11
sI4
(dp12
sI5
(dp13
sI6
(dp14
sI7
(dp15
sI8
(dp16
sI9
(dp17
sI10
(dp18
sI11
(dp19
sI12
(dp20
sI13
(dp21
sI14
(dp22
sI15
(dp23
sI16
(dp24
sI17
(dp25
sI18
(dp26
sI19
(dp27
sI20
(dp28
sI21
(dp29
sI22
(dp30
sI23
(dp31
sI24
(dp32
sI25
(dp33
sI26
(dp34
sI27
(dp35
sI28
(dp36
sI29
(dp37
sI30
(dp38
sI31
(dp39
sI32
(dp40
sI33
(dp41
sI34
(dp42
sI35
(dp43
sI36
(dp44
sI37
(dp45
sI38
(dp46
sI39
(dp47
sI40
(dp48
sI41
(dp49
sI42
(dp50
sI43
(dp51
sI44
(dp52
sI45
(dp53
sI46
(dp54
sI47
(dp55
sI48
(dp56
sI49
(dp57
sI50
(dp58
sI51
(dp59
sI52
(dp60
sI53
(dp61
sI54
(dp62
sI55
(dp63
sI56
(dp64
sI57
(dp65
sI58
(dp66
sI59
(dp67
sI60
(dp68
sI61
(dp69
sI62
(dp70
sI63
(dp71
sI64
(dp72
sI65
(dp73
sI66
(dp74
sI67
(dp75
sI68
(dp76
sI69
(dp77
sI70
(dp78
sI71
(dp79
sI72
(dp80
sI73
(dp81
sI74
(dp82
sI75
(dp83
sI76
(dp84
sI77
(dp85
sI78
(dp86
sI79
(dp87
sI80
(dp88
sI81
(dp89
sI82
(dp90
sI83
(dp91
sI84
(dp92
sI85
(dp93
sI86
(dp94
sI87
(dp95
sI88
(dp96
sI89
(dp97
sI90
(dp98
sI91
(dp99
sI92
(dp100
sI93
(dp101
sI94
(dp102
sI95
(dp103
sI96
(dp104
sI97
(dp105
sI98
(dp106
sI99
(dp107
sI100
(dp108
sI101
(dp109
sI102
(dp110
sI103
(dp111
sI104
(dp112
sI105
(dp113
sI106
(dp114
sI107
(dp115
sI108
(dp116
sI109
(dp117
sI110
(dp118
sI111
(dp119
sI112
(dp120
sI113
(dp121
sI114
(dp122
sI115
(dp123
sI116
(dp124
sI117
(dp125
sI118
(dp126
sI119
(dp127
sI120
(dp128
sI121
(dp129
sI122
(dp130
sI123
(dp131
sI124
(dp132
sI125
(dp133
sI126
(dp134
sI127
(dp135
sI128
(dp136
sI129
(dp137
sI130
(dp138
sI131
(dp139
sI132
(dp140
sI133
(dp141
sI134
(dp142
sI135
(dp143
sI136
(dp144
sI137
(dp145
sI138
(dp146
sI139
(dp147
sI140
(dp148
sI141
(dp149
sI142
(dp150
sI143
(dp151
sI144
(dp152
sI145
(dp153
sI146
(dp154
sI147
(dp155
sI148
(dp156
sI149
(dp157
sI150
(dp158
sI151
(dp159
sI152
(dp160
sI153
(dp161
sI154
(dp162
sI155
(dp163
sI156
(dp164
sI157
(dp165
sI158
(dp166
sI159
(dp167
sI160
(dp168
sI161
(dp169
sI162
(dp170
sI163
(dp171
sI164
(dp172
sI165
(dp173
sI166
(dp174
sI167
(dp175
sI168
(dp176
sI169
(dp177
sI170
(dp178
sI171
(dp179
sI172
(dp180
sI173
(dp181
sI174
(dp182
sI175
(dp183
sI176
(dp184
sI177
(dp185
sI178
(dp186
sI179
(dp187
sI180
(dp188
sI181
(dp189
sI182
(dp190
sI183
(dp191
sI184
(dp192
sI185
(dp193
sI186
(dp194
sI187
(dp195
sI188
(dp196
sI189
(dp197
sI190
(dp198
sI191
(dp199
sI192
(dp200
sI193
(dp201
sI194
(dp202
sI195
(dp203
sI196
(dp204
sI197
(dp205
sI198
(dp206
sI199
(dp207
ssS'node_dict_factory'
p208
c__builtin__
dict
p209
sS'edge_attr_dict_factory'
p210
g209
sS'edge'
p211
(dp212
I0
(dp213
I130
(dp214
sI131
(dp215
sI100
(dp216
sI101
(dp217
sI102
(dp218
sI162
(dp219
sI104
(dp220
sI105
(dp221
sI107
(dp222
sI109
(dp223
sI110
(dp224
sI143
(dp225
sI112
(dp226
sI145
(dp227
sI114
(dp228
sI115
(dp229
sI147
(dp230
sI137
(dp231
sI188
(dp232
sI126
(dp233
sI166
(dp234
ssI1
(dp235
I100
(dp236
sI101
(dp237
ssI2
(dp238
I129
(dp239
sI134
(dp240
sI135
(dp241
sI144
(dp242
sI150
(dp243
sI154
(dp244
sI156
(dp245
sI157
(dp246
sI162
(dp247
sI169
(dp248
sI175
(dp249
sI176
(dp250
sI179
(dp251
sI180
(dp252
sI100
(dp253
sI101
(dp254
sI102
(dp255
sI103
(dp256
sI104
(dp257
sI105
(dp258
sI106
(dp259
sI107
(dp260
sI115
(dp261
sI116
(dp262
sI119
(dp263
sI122
(dp264
sI123
(dp265
sI124
(dp266
sI126
(dp267
ssI3
(dp268
I129
(dp269
sI102
(dp270
sI134
(dp271
sI161
(dp272
sI168
(dp273
sI103
(dp274
sI175
(dp275
sI177
(dp276
ssI4
(dp277
I102
(dp278
ssI5
(dp279
I160
(dp280
sI133
(dp281
sI102
(dp282
sI104
(dp283
sI106
(dp284
sI116
(dp285
ssI6
(dp286
I132
(dp287
sI101
(dp288
sI105
(dp289
sI108
(dp290
sI137
(dp291
sI196
(dp292
ssI7
(dp293
I102
(dp294
sI135
(dp295
sI136
(dp296
sI105
(dp297
sI139
(dp298
sI174
(dp299
sI109
(dp300
sI110
(dp301
sI111
(dp302
sI141
(dp303
sI113
(dp304
sI179
(dp305
sI117
(dp306
sI183
(dp307
sI153
(dp308
sI123
(dp309
sI156
(dp310
sI167
(dp311
sI190
(dp312
sI191
(dp313
ssI8
(dp314
I198
(dp315
sI102
(dp316
sI172
(dp317
sI106
(dp318
sI108
(dp319
sI142
(dp320
sI111
(dp321
sI113
(dp322
sI114
(dp323
sI170
(dp324
sI121
(dp325
sI187
(dp326
sI125
(dp327
ssI9
(dp328
I104
(dp329
sI128
(dp330
sI186
(dp331
sI101
(dp332
sI127
(dp333
ssI10
(dp334
I106
(dp335
sI187
(dp336
sI108
(dp337
ssI11
(dp338
I128
(dp339
sI163
(dp340
sI100
(dp341
sI104
(dp342
sI149
(dp343
sI118
(dp344
sI120
(dp345
sI190
(dp346
ssI12
(dp347
I104
(dp348
sI106
(dp349
sI140
(dp350
ssI13
(dp351
I195
(dp352
sI132
(dp353
sI101
(dp354
sI136
(dp355
sI110
(dp356
sI182
(dp357
sI127
(dp358
ssI14
(dp359
I105
(dp360
sI101
(dp361
ssI15
(dp362
I192
(dp363
sI102
(dp364
sI108
(dp365
sI139
(dp366
sI140
(dp367
sI146
(dp368
sI118
(dp369
sI184
(dp370
sI185
(dp371
sI124
(dp372
ssI16
(dp373
I114
(dp374
sI125
(dp375
sI102
(dp376
ssI17
(dp377
I104
(dp378
sI152
(dp379
sI122
(dp380
sI117
(dp381
sI102
(dp382
ssI18
(dp383
I107
(dp384
sI102
(dp385
ssI19
(dp386
I166
(dp387
sI105
(dp388
sI176
(dp389
sI117
(dp390
sI120
(dp391
sI121
(dp392
sI188
(dp393
ssI20
(dp394
I170
(dp395
sI172
(dp396
sI109
(dp397
sI141
(dp398
sI177
(dp399
sI116
(dp400
ssI21
(dp401
I161
(dp402
sI130
(dp403
sI182
(dp404
sI102
(dp405
sI116
(dp406
sI150
(dp407
ssI22
(dp408
I197
(dp409
sI100
(dp410
sI101
(dp411
sI159
(dp412
ssI23
(dp413
I101
(dp414
sI165
(dp415
ssI24
(dp416
I104
(dp417
sI107
(dp418
ssI25
(dp419
I104
(dp420
sI113
(dp421
sI144
(dp422
sI152
(dp423
ssI26
(dp424
I151
(dp425
sI101
(dp426
sI111
(dp427
ssI27
(dp428
I131
(dp429
sI116
(dp430
sI118
(dp431
sI183
(dp432
ssI28
(dp433
I168
(dp434
sI173
(dp435
sI101
(dp436
sI111
(dp437
ssI29
(dp438
I133
(dp439
sI105
(dp440
sI138
(dp441
sI169
(dp442
sI123
(dp443
sI189
(dp444
sI158
(dp445
ssI30
(dp446
I193
(dp447
sI194
(dp448
sI164
(dp449
sI142
(dp450
sI110
(dp451
sI100
(dp452
ssI31
(dp453
I104
(dp454
sI120
(dp455
sI146
(dp456
ssI32
(dp457
I153
(dp458
sI121
(dp459
sI199
(dp460
sI148
(dp461
sI111
(dp462
ssI33
(dp463
I123
(dp464
sI108
(dp465
ssI34
(dp466
I115
(dp467
sI155
(dp468
sI101
(dp469
ssI35
(dp470
I130
(dp471
sI101
(dp472
sI143
(dp473
sI178
(dp474
sI151
(dp475
sI189
(dp476
ssI36
(dp477
I105
(dp478
sI138
(dp479
sI163
(dp480
sI116
(dp481
ssI37
(dp482
I164
(dp483
sI154
(dp484
sI108
(dp485
sI181
(dp486
sI110
(dp487
ssI38
(dp488
I106
(dp489
sI102
(dp490
ssI39
(dp491
I194
(dp492
sI101
(dp493
sI110
(dp494
sI174
(dp495
ssI40
(dp496
I105
(dp497
sI108
(dp498
ssI41
(dp499
I145
(dp500
sI178
(dp501
sI123
(dp502
sI118
(dp503
ssI42
(dp504
I192
(dp505
sI130
(dp506
sI132
(dp507
ssI43
(dp508
I104
(dp509
sI105
(dp510
ssI44
(dp511
I132
(dp512
sI102
(dp513
ssI45
(dp514
I105
(dp515
sI181
(dp516
sI102
(dp517
ssI46
(dp518
I196
(dp519
sI116
(dp520
sI118
(dp521
sI159
(dp522
ssI47
(dp523
I113
(dp524
sI148
(dp525
sI147
(dp526
sI108
(dp527
ssI48
(dp528
I115
(dp529
sI110
(dp530
ssI49
(dp531
I130
(dp532
sI197
(dp533
sI102
(dp534
ssI50
(dp535
I108
(dp536
sI165
(dp537
sI110
(dp538
ssI51
(dp539
I180
(dp540
sI139
(dp541
sI100
(dp542
sI158
(dp543
ssI52
(dp544
I116
(dp545
sI195
(dp546
sI100
(dp547
ssI53
(dp548
I134
(dp549
sI110
(dp550
ssI54
(dp551
I184
(dp552
sI106
(dp553
sI155
(dp554
sI108
(dp555
ssI55
(dp556
I104
(dp557
sI128
(dp558
ssI56
(dp559
I109
(dp560
sI102
(dp561
ssI57
(dp562
I132
(dp563
sI171
(dp564
sI116
(dp565
sI157
(dp566
ssI58
(dp567
I116
(dp568
sI101
(dp569
ssI59
(dp570
I101
(dp571
sI143
(dp572
ssI60
(dp573
I121
(dp574
sI171
(dp575
sI159
(dp576
ssI61
(dp577
I155
(dp578
sI126
(dp579
ssI62
(dp580
I112
(dp581
sI152
(dp582
ssI63
(dp583
I137
(dp584
sI107
(dp585
ssI64
(dp586
I115
(dp587
sI101
(dp588
ssI65
(dp589
I130
(dp590
sI173
(dp591
sI102
(dp592
ssI66
(dp593
I116
(dp594
ssI67
(dp595
I139
(dp596
sI102
(dp597
ssI68
(dp598
I120
(dp599
sI164
(dp600
ssI69
(dp601
I105
(dp602
sI116
(dp603
ssI70
(dp604
I101
(dp605
sI103
(dp606
ssI71
(dp607
I108
(dp608
sI100
(dp609
ssI72
(dp610
I113
(dp611
sI108
(dp612
ssI73
(dp613
I121
(dp614
sI193
(dp615
sI131
(dp616
sI191
(dp617
ssI74
(dp618
I185
(dp619
sI115
(dp620
sI116
(dp621
ssI75
(dp622
I129
(dp623
sI106
(dp624
ssI76
(dp625
I105
(dp626
sI102
(dp627
ssI77
(dp628
I104
(dp629
sI117
(dp630
ssI78
(dp631
I122
(dp632
sI155
(dp633
ssI79
(dp634
I105
(dp635
sI125
(dp636
ssI80
(dp637
I186
(dp638
sI139
(dp639
sI102
(dp640
ssI81
(dp641
I120
(dp642
sI102
(dp643
ssI82
(dp644
I105
(dp645
sI181
(dp646
sI199
(dp647
ssI83
(dp648
I131
(dp649
sI102
(dp650
ssI84
(dp651
I164
(dp652
sI103
(dp653
ssI85
(dp654
I151
(dp655
sI111
(dp656
ssI86
(dp657
I120
(dp658
sI163
(dp659
ssI87
(dp660
I131
(dp661
sI110
(dp662
ssI88
(dp663
I198
(dp664
sI109
(dp665
sI102
(dp666
ssI89
(dp667
I110
(dp668
sI102
(dp669
ssI90
(dp670
I105
(dp671
sI102
(dp672
ssI91
(dp673
I133
(dp674
sI110
(dp675
ssI92
(dp676
I181
(dp677
sI102
(dp678
ssI93
(dp679
I131
(dp680
sI109
(dp681
ssI94
(dp682
I184
(dp683
sI105
(dp684
ssI95
(dp685
I131
(dp686
sI116
(dp687
ssI96
(dp688
I121
(dp689
sI101
(dp690
ssI97
(dp691
I131
(dp692
sI132
(dp693
ssI98
(dp694
I192
(dp695
sI153
(dp696
ssI99
(dp697
I105
(dp698
sI195
(dp699
ssI100
(dp700
I0
g216
sI1
g236
sI2
g253
sI71
g609
sI11
g341
sI51
g542
sI52
g547
sI22
g410
sI30
g452
ssI101
(dp701
I0
g217
sI1
g237
sI2
g254
sI34
g469
sI96
g690
sI70
g605
sI6
g288
sI39
g493
sI64
g588
sI9
g332
sI13
g354
sI14
g361
sI35
g472
sI22
g411
sI23
g414
sI26
g426
sI59
g571
sI28
g436
sI58
g569
ssI102
(dp702
I0
g218
sI2
g255
sI3
g270
sI4
g278
sI5
g282
sI7
g294
sI8
g316
sI15
g364
sI16
g376
sI17
g382
sI18
g385
sI21
g405
sI38
g490
sI44
g513
sI45
g517
sI49
g534
sI56
g561
sI65
g592
sI67
g597
sI76
g627
sI80
g640
sI81
g643
sI83
g650
sI88
g666
sI89
g669
sI90
g672
sI92
g678
ssI103
(dp703
I2
g256
sI3
g274
sI84
g653
sI70
g606
ssI104
(dp704
I0
g220
sI2
g257
sI43
g509
sI5
g283
sI9
g329
sI11
g342
sI12
g348
sI77
g629
sI17
g378
sI55
g557
sI24
g417
sI25
g420
sI31
g454
ssI105
(dp705
I0
g221
sI2
g258
sI99
g698
sI36
g478
sI69
g602
sI6
g289
sI7
g297
sI40
g497
sI43
g510
sI76
g626
sI45
g515
sI14
g360
sI79
g635
sI82
g645
sI19
g388
sI90
g671
sI29
g440
sI94
g684
ssI106
(dp706
I2
g259
sI5
g284
sI38
g489
sI8
g318
sI10
g335
sI75
g624
sI12
g349
sI54
g553
ssI107
(dp707
I0
g222
sI24
g418
sI2
g260
sI18
g384
sI63
g585
ssI108
(dp708
I33
g465
sI37
g485
sI6
g290
sI71
g608
sI8
g319
sI10
g337
sI15
g365
sI40
g498
sI50
g536
sI54
g555
sI72
g612
sI47
g527
ssI109
(dp709
I0
g223
sI7
g300
sI88
g665
sI20
g397
sI56
g560
sI93
g681
ssI110
(dp710
I0
g224
sI37
g487
sI39
g494
sI7
g301
sI13
g356
sI48
g530
sI50
g538
sI53
g550
sI87
g662
sI89
g668
sI91
g675
sI30
g451
ssI111
(dp711
I32
g462
sI7
g302
sI8
g321
sI85
g656
sI26
g427
sI28
g437
ssI112
(dp712
I0
g226
sI62
g581
ssI113
(dp713
I8
g322
sI25
g421
sI47
g524
sI72
g611
sI7
g304
ssI114
(dp714
I0
g228
sI8
g323
sI16
g374
ssI115
(dp715
I0
g229
sI64
g587
sI2
g261
sI74
g620
sI34
g467
sI48
g529
ssI116
(dp716
I2
g262
sI36
g481
sI5
g285
sI74
g621
sI66
g594
sI46
g520
sI95
g687
sI20
g400
sI21
g406
sI57
g565
sI52
g545
sI58
g568
sI27
g430
sI69
g603
ssI117
(dp717
I17
g381
sI19
g390
sI77
g630
sI7
g306
ssI118
(dp718
I27
g431
sI41
g503
sI11
g344
sI46
g521
sI15
g369
ssI119
(dp719
I2
g263
ssI120
(dp720
I68
g599
sI11
g345
sI81
g642
sI19
g391
sI86
g658
sI31
g455
ssI121
(dp721
I32
g459
sI96
g689
sI8
g325
sI73
g614
sI19
g392
sI60
g574
ssI122
(dp722
I17
g380
sI2
g264
sI78
g632
ssI123
(dp723
I33
g464
sI2
g265
sI41
g502
sI29
g443
sI7
g309
ssI124
(dp724
I2
g266
sI15
g372
ssI125
(dp725
I8
g327
sI16
g375
sI79
g636
ssI126
(dp726
I0
g233
sI2
g267
sI61
g579
ssI127
(dp727
I9
g333
sI13
g358
ssI128
(dp728
I9
g330
sI11
g339
sI55
g558
ssI129
(dp729
I75
g623
sI2
g239
sI3
g269
ssI130
(dp730
I0
g214
sI65
g590
sI35
g471
sI42
g506
sI49
g532
sI21
g403
ssI131
(dp731
I0
g215
sI97
g692
sI73
g616
sI83
g649
sI87
g661
sI27
g429
sI93
g680
sI95
g686
ssI132
(dp732
I97
g693
sI6
g287
sI42
g507
sI44
g512
sI13
g353
sI57
g563
ssI133
(dp733
I91
g674
sI5
g281
sI29
g439
ssI134
(dp734
I2
g240
sI3
g271
sI53
g549
ssI135
(dp735
I2
g241
sI7
g295
ssI136
(dp736
I13
g355
sI7
g296
ssI137
(dp737
I0
g231
sI6
g291
sI63
g584
ssI138
(dp738
I36
g479
sI29
g441
ssI139
(dp739
I80
g639
sI51
g541
sI67
g596
sI15
g366
sI7
g298
ssI140
(dp740
I12
g350
sI15
g367
ssI141
(dp741
I20
g398
sI7
g303
ssI142
(dp742
I8
g320
sI30
g450
ssI143
(dp743
I0
g225
sI59
g572
sI35
g473
ssI144
(dp744
I25
g422
sI2
g242
ssI145
(dp745
I0
g227
sI41
g500
ssI146
(dp746
I31
g456
sI15
g368
ssI147
(dp747
I0
g230
sI47
g526
ssI148
(dp748
I32
g461
sI47
g525
ssI149
(dp749
I11
g343
ssI150
(dp750
I2
g243
sI21
g407
ssI151
(dp751
I26
g425
sI35
g475
sI85
g655
ssI152
(dp752
I17
g379
sI62
g582
sI25
g423
ssI153
(dp753
I32
g458
sI98
g696
sI7
g308
ssI154
(dp754
I2
g244
sI37
g484
ssI155
(dp755
I34
g468
sI78
g633
sI61
g578
sI54
g554
ssI156
(dp756
I2
g245
sI7
g310
ssI157
(dp757
I57
g566
sI2
g246
ssI158
(dp758
I51
g543
sI29
g445
ssI159
(dp759
I60
g576
sI46
g522
sI22
g412
ssI160
(dp760
I5
g280
ssI161
(dp761
I3
g272
sI21
g402
ssI162
(dp762
I0
g219
sI2
g247
ssI163
(dp763
I11
g340
sI36
g480
sI86
g659
ssI164
(dp764
I84
g652
sI68
g600
sI37
g483
sI30
g449
ssI165
(dp765
I50
g537
sI23
g415
ssI166
(dp766
I0
g234
sI19
g387
ssI167
(dp767
I7
g311
ssI168
(dp768
I3
g273
sI28
g434
ssI169
(dp769
I2
g248
sI29
g442
ssI170
(dp770
I8
g324
sI20
g395
ssI171
(dp771
I57
g564
sI60
g575
ssI172
(dp772
I8
g317
sI20
g396
ssI173
(dp773
I65
g591
sI28
g435
ssI174
(dp774
I39
g495
sI7
g299
ssI175
(dp775
I2
g249
sI3
g275
ssI176
(dp776
I2
g250
sI19
g389
ssI177
(dp777
I3
g276
sI20
g399
ssI178
(dp778
I41
g501
sI35
g474
ssI179
(dp779
I2
g251
sI7
g305
ssI180
(dp780
I2
g252
sI51
g540
ssI181
(dp781
I82
g646
sI92
g677
sI37
g486
sI45
g516
ssI182
(dp782
I13
g357
sI21
g404
ssI183
(dp783
I27
g432
sI7
g307
ssI184
(dp784
I94
g683
sI54
g552
sI15
g370
ssI185
(dp785
I74
g619
sI15
g371
ssI186
(dp786
I80
g638
sI9
g331
ssI187
(dp787
I8
g326
sI10
g336
ssI188
(dp788
I0
g232
sI19
g393
ssI189
(dp789
I35
g476
sI29
g444
ssI190
(dp790
I11
g346
sI7
g312
ssI191
(dp791
I73
g617
sI7
g313
ssI192
(dp792
I42
g505
sI98
g695
sI15
g363
ssI193
(dp793
I73
g615
sI30
g447
ssI194
(dp794
I30
g448
sI39
g492
ssI195
(dp795
I99
g699
sI52
g546
sI13
g352
ssI196
(dp796
I46
g519
sI6
g292
ssI197
(dp797
I49
g533
sI22
g409
ssI198
(dp798
I8
g315
sI88
g664
ssI199
(dp799
I32
g460
sI82
g647
sssS'graph'
p800
(dp801
sS'adjlist_dict_factory'
p802
g209
sS'adj'
p803
g212
sb.